BL51 BANKED LINKER/LOCATER V6.22.2.0                                                    01/14/2022  09:01:27  PAGE 1


BL51 BANKED LINKER/LOCATER V6.22.2.0, INVOKED BY:
D:\KEIL\C51\BIN\BL51.EXE STARTUP.obj, 3264gpsòÝøÆ.obj TO 3264GPSòÝøÆ-12 RAMSIZE (256)


MEMORY MODEL: LARGE


INPUT MODULES INCLUDED:
  STARTUP.obj (?C_STARTUP)
  3264gpsòÝøÆ.obj (3264GPS____)
  D:\KEIL\C51\LIB\C51L.LIB (?C_INIT)
  D:\KEIL\C51\LIB\C51L.LIB (?C?SCDIV)
  D:\KEIL\C51\LIB\C51L.LIB (?C?IMUL)
  D:\KEIL\C51\LIB\C51L.LIB (?C?ILDIX)
  D:\KEIL\C51\LIB\C51L.LIB (?C?OFFXADD)


LINK MAP OF MODULE:  3264GPSòÝøÆ-12 (?C_STARTUP)


            TYPE    BASE      LENGTH    RELOCATION   SEGMENT NAME
            -----------------------------------------------------

            * * * * * * *   D A T A   M E M O R Y   * * * * * * *
            REG     0000H     0008H     ABSOLUTE     "REG BANK 0"
            REG     0008H     0008H     ABSOLUTE     "REG BANK 1"
            REG     0010H     0008H     ABSOLUTE     "REG BANK 2"
            REG     0018H     0008H     ABSOLUTE     "REG BANK 3"
            BIT     0020H.0   0002H.6   UNIT         ?BI?3264GPS____
            BIT     0022H.6   0000H.1   UNIT         _BIT_GROUP_
                    0022H.7   0000H.1                *** GAP ***
            DATA    0023H     0031H     UNIT         ?DT?3264GPS____
            DATA    0054H     0003H     UNIT         _DATA_GROUP_
            IDATA   0057H     0028H     UNIT         ?ID?3264GPS____
            IDATA   007FH     000EH     UNIT         _IDATA_GROUP_
            IDATA   008DH     0001H     UNIT         ?STACK

            * * * * * * *  X D A T A   M E M O R Y  * * * * * * *
            XDATA   0000H     0032H     UNIT         ?XD?3264GPS____
            XDATA   0032H     0008H     UNIT         _XDATA_GROUP_

            * * * * * * *   C O D E   M E M O R Y   * * * * * * *
            CODE    0000H     0003H     ABSOLUTE     
            CODE    0003H     0008H     UNIT         ?PR?TIM0?3264GPS____
            CODE    000BH     0003H     ABSOLUTE     
                    000EH     0005H                  *** GAP ***
            CODE    0013H     0003H     ABSOLUTE     
                    0016H     0005H                  *** GAP ***
            CODE    001BH     0003H     ABSOLUTE     
                    001EH     0005H                  *** GAP ***
            CODE    0023H     0003H     ABSOLUTE     
                    0026H     0005H                  *** GAP ***
            CODE    002BH     0003H     ABSOLUTE     
            CODE    002EH     1AFBH     UNIT         ?PR?MODE0_SJ_RGB?3264GPS____
            CODE    1B29H     1708H     UNIT         ?CO?3264GPS____
            CODE    3231H     0D07H     UNIT         ?PR?MODE4_SJ_R?3264GPS____
            CODE    3F38H     0D02H     UNIT         ?PR?MODE8_SJ_R?3264GPS____
            CODE    4C3AH     08CFH     UNIT         ?PR?MODE6_SJ_R?3264GPS____
BL51 BANKED LINKER/LOCATER V6.22.2.0                                                  01/14/2022  09:01:27  PAGE 2


            CODE    5509H     08CFH     UNIT         ?PR?MODE7_SJ_R?3264GPS____
            CODE    5DD8H     06EAH     UNIT         ?PR?MODE5_SJ_R?3264GPS____
            CODE    64C2H     02AFH     UNIT         ?PR?MODE2_SJ_R?3264GPS____
            CODE    6771H     02AFH     UNIT         ?PR?MODE3_SJ_R?3264GPS____
            CODE    6A20H     0280H     UNIT         ?PR?MODE1_SJ_R?3264GPS____
            CODE    6CA0H     0280H     UNIT         ?PR?MODE1_SJ_G?3264GPS____
            CODE    6F20H     0280H     UNIT         ?PR?MODE1_SJ_B?3264GPS____
            CODE    71A0H     0233H     UNIT         ?PR?GETNL_RI?3264GPS____
            CODE    73D3H     0227H     UNIT         ?PR?MODE0123_RQ_G?3264GPS____
            CODE    75FAH     0221H     UNIT         ?PR?KEYSCAN?3264GPS____
            CODE    781BH     0213H     UNIT         ?PR?MODE1_SJ_RGB?3264GPS____
            CODE    7A2EH     0212H     UNIT         ?PR?SHOWLOGO?3264GPS____
            CODE    7C40H     0211H     UNIT         ?PR?ADC?3264GPS____
            CODE    7E51H     020CH     UNIT         ?PR?XUEXI_G?3264GPS____
            CODE    805DH     018DH     UNIT         ?PR?MAIN?3264GPS____
            CODE    81EAH     017FH     UNIT         ?PR?MODE4567_RQ_R?3264GPS____
            CODE    8369H     0172H     UNIT         ?PR?XUEXI_R?3264GPS____
            CODE    84DBH     0158H     UNIT         ?PR?_GET_MOON_DAY?3264GPS____
            CODE    8633H     014BH     UNIT         ?PR?MODE10_SJ_R?3264GPS____
            CODE    877EH     014BH     UNIT         ?PR?MODE11_SJ_R?3264GPS____
            CODE    88C9H     013AH     UNIT         ?PR?LOADDATA_G?3264GPS____
            CODE    8A03H     0129H     UNIT         ?PR?MODE4567_RQ_G?3264GPS____
            CODE    8B2CH     010DH     UNIT         ?PR?MODE9_SJ_R?3264GPS____
            CODE    8C39H     0109H     UNIT         ?PR?LOADDATA_R?3264GPS____
            CODE    8D42H     00F8H     UNIT         ?PR?INT1?3264GPS____
            CODE    8E3AH     00EDH     UNIT         ?PR?SETSHI_R?3264GPS____
            CODE    8F27H     00EDH     UNIT         ?PR?SETFEN_R?3264GPS____
            CODE    9014H     00EDH     UNIT         ?PR?SETMIAO_R?3264GPS____
            CODE    9101H     00E5H     UNIT         ?PR?MODESLEEP_R?3264GPS____
            CODE    91E6H     00E1H     UNIT         ?PR?ERR3231?3264GPS____
            CODE    92C7H     00D0H     UNIT         ?PR?UART?3264GPS____
            CODE    9397H     00CDH     UNIT         ?PR?YAOKONG_R?3264GPS____
            CODE    9464H     00CAH     UNIT         ?PR?MODE8_NL_G?3264GPS____
            CODE    952EH     00B4H     UNIT         ?PR?GETTIME?3264GPS____
            CODE    95E2H     00B1H     UNIT         ?PR?MODE8_XQ_G?3264GPS____
            CODE    9693H     00A6H     UNIT         ?PR?GETALLTIME?3264GPS____
            CODE    9739H     00A4H     UNIT         ?PR?_SCAN?3264GPS____
            CODE    97DDH     00A2H     UNIT         ?PR?MODE8_RQ_G?3264GPS____
            CODE    987FH     009FH     UNIT         ?PR?SETYUE_R?3264GPS____
            CODE    991EH     009FH     UNIT         ?PR?SETRI_R?3264GPS____
            CODE    99BDH     009DH     UNIT         ?PR?NTCBUCHANG_R?3264GPS____
            CODE    9A5AH     0091H     UNIT         ?PR?SETLIANGDU_R?3264GPS____
            CODE    9AEBH     008CH     UNIT         ?C_C51STARTUP
            CODE    9B77H     008CH     UNIT         ?PR?IR_ICON?3264GPS____
            CODE    9C03H     0089H     UNIT         ?PR?SETLIANGDU_G?3264GPS____
            CODE    9C8CH     0088H     UNIT         ?PR?SENDDATE_RGB?3264GPS____
            CODE    9D14H     0084H     UNIT         ?PR?_GETWEEK?3264GPS____
            CODE    9D98H     0081H     UNIT         ?PR?MODE0123_RQ_R?3264GPS____
            CODE    9E19H     0072H     UNIT         ?PR?READ18B20?3264GPS____
            CODE    9E8BH     006FH     UNIT         ?PR?SETNIAN_R?3264GPS____
            CODE    9EFAH     0069H     UNIT         ?PR?SETMINLIANGDU_R?3264GPS____
            CODE    9F63H     0063H     UNIT         ?PR?_SETTIME?3264GPS____
            CODE    9FC6H     0061H     UNIT         ?PR?SETLIANGDUG_R?3264GPS____
            CODE    A027H     0060H     UNIT         ?PR?WRITE_CANSHI?3264GPS____
            CODE    A087H     0059H     UNIT         ?PR?MODE8_XQ_R?3264GPS____
            CODE    A0E0H     0056H     UNIT         ?C?LIB_CODE
            CODE    A136H     0053H     UNIT         ?PR?SENDDATA_G?3264GPS____
BL51 BANKED LINKER/LOCATER V6.22.2.0                                                  01/14/2022  09:01:27  PAGE 3


            CODE    A189H     0053H     UNIT         ?PR?SENDDATA_R?3264GPS____
            CODE    A1DCH     0040H     UNIT         ?PR?DS3231_INITIAL?3264GPS____
            CODE    A21CH     003FH     UNIT         ?PR?MODE0_SJ_G?3264GPS____
            CODE    A25BH     003EH     UNIT         ?PR?NTCBUCHANG_G?3264GPS____
            CODE    A299H     0037H     UNIT         ?PR?MODE2_SJ_G?3264GPS____
            CODE    A2D0H     0037H     UNIT         ?PR?MODE3_SJ_G?3264GPS____
            CODE    A307H     0036H     UNIT         ?PR?_SENDBYTE?3264GPS____
            CODE    A33DH     0034H     UNIT         ?PR?SETMINLIANGDU_G?3264GPS____
            CODE    A371H     0034H     UNIT         ?PR?SETLIANGDUG_G?3264GPS____
            CODE    A3A5H     0032H     UNIT         ?PR?_DS3231_WRITE_BYTE?3264GPS____
            CODE    A3D7H     0032H     UNIT         ?PR?WRITE_EEP?3264GPS____
            CODE    A409H     0032H     UNIT         ?PR?TIME1?3264GPS____
            CODE    A43BH     0030H     UNIT         ?PR?_READ_RANDOM?3264GPS____
            CODE    A46BH     002EH     UNIT         ?C_INITSEG
            CODE    A499H     0029H     UNIT         ?PR?SETYUE_G?3264GPS____
            CODE    A4C2H     0029H     UNIT         ?PR?SETRI_G?3264GPS____
            CODE    A4EBH     0025H     UNIT         ?PR?SHEZHI?3264GPS____
            CODE    A510H     0024H     UNIT         ?PR?READ_EEP?3264GPS____
            CODE    A534H     0022H     UNIT         ?PR?RCVBYTE?3264GPS____
            CODE    A556H     0022H     UNIT         ?PR?READ_BYTE?3264GPS____
            CODE    A578H     0021H     UNIT         ?PR?DS18B20_TEST?3264GPS____
            CODE    A599H     001EH     UNIT         ?PR?YAOKONG_G?3264GPS____
            CODE    A5B7H     001BH     UNIT         ?PR?_WRITE_BYTE?3264GPS____
            CODE    A5D2H     001AH     UNIT         ?PR?READ_CURRENT?3264GPS____
            CODE    A5ECH     0019H     UNIT         ?PR?SETNIAN_G?3264GPS____
            CODE    A605H     0019H     UNIT         ?PR?_BYTE_READ?3264GPS____
            CODE    A61EH     0018H     UNIT         ?PR?MODE6_SJ_G?3264GPS____
            CODE    A636H     0018H     UNIT         ?PR?MODE7_SJ_G?3264GPS____
            CODE    A64EH     0018H     UNIT         ?PR?MODE10_SJ_G?3264GPS____
            CODE    A666H     0018H     UNIT         ?PR?MODE11_SJ_G?3264GPS____
            CODE    A67EH     0017H     UNIT         ?PR?_BYTE_PROGRAM?3264GPS____
            CODE    A695H     0016H     UNIT         ?PR?XIANSHI?3264GPS____
            CODE    A6ABH     0014H     UNIT         ?PR?MODE4_SJ_G?3264GPS____
            CODE    A6BFH     0014H     UNIT         ?PR?MODE5_SJ_G?3264GPS____
            CODE    A6D3H     0014H     UNIT         ?PR?MODE8_SJ_G?3264GPS____
            CODE    A6E7H     0014H     UNIT         ?PR?MODE9_SJ_G?3264GPS____
            CODE    A6FBH     0013H     UNIT         ?PR?_DELAY18B20?3264GPS____
            CODE    A70EH     0013H     UNIT         ?PR?GONGGONGDAIMA?3264GPS____
            CODE    A721H     0013H     UNIT         ?PR?_SECTOR_ERASE?3264GPS____
            CODE    A734H     0012H     UNIT         ?PR?DS18B20_RST?3264GPS____
            CODE    A746H     0012H     UNIT         ?PR?_DELAY?3264GPS____
            CODE    A758H     0011H     UNIT         ?PR?_MODIFYTIME?3264GPS____
            CODE    A769H     0011H     UNIT         ?PR?SETSHI_G?3264GPS____
            CODE    A77AH     0011H     UNIT         ?PR?SETFEN_G?3264GPS____
            CODE    A78BH     0011H     UNIT         ?PR?SETMIAO_G?3264GPS____
            CODE    A79CH     0010H     UNIT         ?PR?UARTINIT?3264GPS____
            CODE    A7ACH     000FH     UNIT         ?PR?_DELAYUS?3264GPS____
            CODE    A7BBH     000EH     UNIT         ?PR?ACK_I2C?3264GPS____
            CODE    A7C9H     0009H     UNIT         ?PR?DELAY5US?3264GPS____
            CODE    A7D2H     0009H     UNIT         ?PR?IIC_START?3264GPS____
            CODE    A7DBH     0009H     UNIT         ?PR?IIC_STOP?3264GPS____



OVERLAY MAP OF MODULE:   3264GPSòÝøÆ-12 (?C_STARTUP)


BL51 BANKED LINKER/LOCATER V6.22.2.0                                                  01/14/2022  09:01:27  PAGE 4


SEGMENT                                       BIT_GROUP          DATA_GROUP          IDATA_GROUP         XDATA_GROUP
  +--> CALLED SEGMENT                      START    LENGTH     START    LENGTH     START    LENGTH     START    LENGTH
----------------------------------------------------------------------------------------------------------------------
?C_C51STARTUP                              -----    -----      -----    -----      -----    -----      -----    -----
  +--> ?PR?MAIN?3264GPS____
  +--> ?C_INITSEG

?PR?MAIN?3264GPS____                       -----    -----      -----    -----      007FH    0003H      -----    -----
  +--> ?PR?UARTINIT?3264GPS____
  +--> ?PR?DS18B20_TEST?3264GPS____
  +--> ?PR?_DELAY?3264GPS____
  +--> ?PR?READ18B20?3264GPS____
  +--> ?PR?DS3231_INITIAL?3264GPS____
  +--> ?PR?_READ_RANDOM?3264GPS____
  +--> ?PR?ERR3231?3264GPS____
  +--> ?PR?_BYTE_READ?3264GPS____
  +--> ?PR?WRITE_CANSHI?3264GPS____
  +--> ?PR?SHOWLOGO?3264GPS____
  +--> ?PR?READ_EEP?3264GPS____
  +--> ?PR?GETALLTIME?3264GPS____
  +--> ?PR?GETTIME?3264GPS____
  +--> ?PR?KEYSCAN?3264GPS____
  +--> ?PR?XIANSHI?3264GPS____

?PR?DS18B20_TEST?3264GPS____               -----    -----      -----    -----      -----    -----      -----    -----
  +--> ?PR?_DELAY18B20?3264GPS____

?PR?READ18B20?3264GPS____                  -----    -----      -----    -----      -----    -----      -----    -----
  +--> ?PR?DS18B20_RST?3264GPS____
  +--> ?PR?_WRITE_BYTE?3264GPS____
  +--> ?PR?READ_BYTE?3264GPS____
  +--> ?CO?3264GPS____

?PR?DS18B20_RST?3264GPS____                -----    -----      -----    -----      -----    -----      -----    -----
  +--> ?PR?_DELAY18B20?3264GPS____

?PR?_WRITE_BYTE?3264GPS____                -----    -----      -----    -----      -----    -----      -----    -----
  +--> ?PR?_DELAY18B20?3264GPS____

?PR?READ_BYTE?3264GPS____                  -----    -----      -----    -----      -----    -----      -----    -----
  +--> ?PR?_DELAY18B20?3264GPS____

?PR?DS3231_INITIAL?3264GPS____             -----    -----      -----    -----      -----    -----      -----    -----
  +--> ?PR?_DELAY?3264GPS____
  +--> ?PR?_READ_RANDOM?3264GPS____
  +--> ?PR?_DS3231_WRITE_BYTE?3264GPS____
  +--> ?PR?_MODIFYTIME?3264GPS____

?PR?_READ_RANDOM?3264GPS____               -----    -----      -----    -----      -----    -----      -----    -----
  +--> ?PR?IIC_START?3264GPS____
  +--> ?PR?_SENDBYTE?3264GPS____
  +--> ?PR?READ_CURRENT?3264GPS____

?PR?_SENDBYTE?3264GPS____                  -----    -----      -----    -----      -----    -----      -----    -----
  +--> ?PR?DELAY5US?3264GPS____

?PR?READ_CURRENT?3264GPS____               -----    -----      -----    -----      -----    -----      -----    -----
BL51 BANKED LINKER/LOCATER V6.22.2.0                                                  01/14/2022  09:01:27  PAGE 5


  +--> ?PR?IIC_START?3264GPS____
  +--> ?PR?_SENDBYTE?3264GPS____
  +--> ?PR?RCVBYTE?3264GPS____
  +--> ?PR?ACK_I2C?3264GPS____
  +--> ?PR?IIC_STOP?3264GPS____

?PR?RCVBYTE?3264GPS____                    -----    -----      -----    -----      -----    -----      -----    -----
  +--> ?PR?DELAY5US?3264GPS____

?PR?ACK_I2C?3264GPS____                    0022H.6  0000H.1    -----    -----      -----    -----      -----    -----
  +--> ?PR?DELAY5US?3264GPS____

?PR?_DS3231_WRITE_BYTE?3264GPS____         -----    -----      -----    -----      -----    -----      -----    -----
  +--> ?PR?IIC_START?3264GPS____
  +--> ?PR?_SENDBYTE?3264GPS____
  +--> ?PR?IIC_STOP?3264GPS____
  +--> ?PR?DELAY5US?3264GPS____

?PR?_MODIFYTIME?3264GPS____                -----    -----      -----    -----      -----    -----      -----    -----
  +--> ?PR?_DS3231_WRITE_BYTE?3264GPS____

?PR?ERR3231?3264GPS____                    -----    -----      -----    -----      -----    -----      -----    -----
  +--> ?CO?3264GPS____
  +--> ?PR?SENDDATA_G?3264GPS____
  +--> ?PR?SENDDATA_R?3264GPS____

?PR?SENDDATA_G?3264GPS____                 -----    -----      -----    -----      -----    -----      -----    -----
  +--> ?PR?_SCAN?3264GPS____

?PR?SENDDATA_R?3264GPS____                 -----    -----      -----    -----      -----    -----      -----    -----
  +--> ?PR?_SCAN?3264GPS____

?PR?_BYTE_READ?3264GPS____                 -----    -----      -----    -----      -----    -----      -----    -----
  +--> ?PR?GONGGONGDAIMA?3264GPS____

?PR?WRITE_CANSHI?3264GPS____               -----    -----      -----    -----      -----    -----      -----    -----
  +--> ?PR?_SECTOR_ERASE?3264GPS____
  +--> ?PR?_BYTE_PROGRAM?3264GPS____

?PR?_SECTOR_ERASE?3264GPS____              -----    -----      -----    -----      -----    -----      -----    -----
  +--> ?PR?GONGGONGDAIMA?3264GPS____

?PR?_BYTE_PROGRAM?3264GPS____              -----    -----      -----    -----      -----    -----      -----    -----
  +--> ?PR?GONGGONGDAIMA?3264GPS____

?PR?SHOWLOGO?3264GPS____                   -----    -----      -----    -----      -----    -----      0032H    0002H
  +--> ?CO?3264GPS____
  +--> ?PR?_SCAN?3264GPS____
  +--> ?PR?_DELAY?3264GPS____

?PR?GETALLTIME?3264GPS____                 -----    -----      -----    -----      -----    -----      -----    -----
  +--> ?PR?_READ_RANDOM?3264GPS____
  +--> ?PR?GETNL_RI?3264GPS____

?PR?GETNL_RI?3264GPS____                   -----    -----      -----    -----      0082H    000BH      -----    -----
  +--> ?CO?3264GPS____
  +--> ?PR?_GET_MOON_DAY?3264GPS____
BL51 BANKED LINKER/LOCATER V6.22.2.0                                                  01/14/2022  09:01:27  PAGE 6


  +--> ?PR?_GETWEEK?3264GPS____

?PR?_GET_MOON_DAY?3264GPS____              -----    -----      -----    -----      -----    -----      -----    -----
  +--> ?CO?3264GPS____

?PR?GETTIME?3264GPS____                    -----    -----      -----    -----      -----    -----      -----    -----
  +--> ?PR?_READ_RANDOM?3264GPS____
  +--> ?PR?GETNL_RI?3264GPS____

?PR?KEYSCAN?3264GPS____                    -----    -----      -----    -----      -----    -----      -----    -----
  +--> ?PR?XIANSHI?3264GPS____
  +--> ?PR?IR_ICON?3264GPS____
  +--> ?PR?GETALLTIME?3264GPS____
  +--> ?PR?_SETTIME?3264GPS____
  +--> ?PR?WRITE_CANSHI?3264GPS____

?PR?XIANSHI?3264GPS____                    -----    -----      -----    -----      -----    -----      -----    -----
  +--> ?PR?LOADDATA_R?3264GPS____
  +--> ?PR?LOADDATA_G?3264GPS____
  +--> ?PR?SENDDATE_RGB?3264GPS____

?PR?LOADDATA_R?3264GPS____                 -----    -----      -----    -----      -----    -----      -----    -----
  +--> ?PR?MODE0_SJ_RGB?3264GPS____
  +--> ?PR?MODE1_SJ_RGB?3264GPS____
  +--> ?PR?MODE0123_RQ_R?3264GPS____
  +--> ?PR?MODE2_SJ_R?3264GPS____
  +--> ?PR?MODE3_SJ_R?3264GPS____
  +--> ?PR?MODE4567_RQ_R?3264GPS____
  +--> ?PR?MODE4_SJ_R?3264GPS____
  +--> ?PR?MODE5_SJ_R?3264GPS____
  +--> ?PR?MODE6_SJ_R?3264GPS____
  +--> ?PR?MODE7_SJ_R?3264GPS____
  +--> ?PR?MODE8_SJ_R?3264GPS____
  +--> ?PR?MODE9_SJ_R?3264GPS____
  +--> ?PR?MODE10_SJ_R?3264GPS____
  +--> ?PR?MODE11_SJ_R?3264GPS____
  +--> ?PR?MODE8_XQ_R?3264GPS____
  +--> ?PR?MODESLEEP_R?3264GPS____
  +--> ?PR?SETNIAN_R?3264GPS____
  +--> ?PR?SETYUE_R?3264GPS____
  +--> ?PR?SETRI_R?3264GPS____
  +--> ?PR?SETSHI_R?3264GPS____
  +--> ?PR?SETFEN_R?3264GPS____
  +--> ?PR?SETMIAO_R?3264GPS____
  +--> ?PR?SETLIANGDU_R?3264GPS____
  +--> ?PR?SETMINLIANGDU_R?3264GPS____
  +--> ?PR?SETLIANGDUG_R?3264GPS____
  +--> ?PR?NTCBUCHANG_R?3264GPS____
  +--> ?PR?YAOKONG_R?3264GPS____
  +--> ?PR?XUEXI_R?3264GPS____

?PR?MODE0_SJ_RGB?3264GPS____               -----    -----      -----    -----      -----    -----      -----    -----
  +--> ?CO?3264GPS____

?PR?MODE1_SJ_RGB?3264GPS____               -----    -----      -----    -----      -----    -----      -----    -----
  +--> ?PR?MODE1_SJ_R?3264GPS____
  +--> ?PR?MODE1_SJ_G?3264GPS____
BL51 BANKED LINKER/LOCATER V6.22.2.0                                                  01/14/2022  09:01:27  PAGE 7


  +--> ?PR?MODE1_SJ_B?3264GPS____
  +--> ?CO?3264GPS____

?PR?MODE1_SJ_R?3264GPS____                 -----    -----      -----    -----      -----    -----      -----    -----
  +--> ?CO?3264GPS____

?PR?MODE1_SJ_G?3264GPS____                 -----    -----      -----    -----      -----    -----      -----    -----
  +--> ?CO?3264GPS____

?PR?MODE1_SJ_B?3264GPS____                 -----    -----      -----    -----      -----    -----      -----    -----
  +--> ?CO?3264GPS____

?PR?MODE0123_RQ_R?3264GPS____              -----    -----      -----    -----      -----    -----      0032H    0001H
  +--> ?CO?3264GPS____

?PR?MODE2_SJ_R?3264GPS____                 -----    -----      -----    -----      -----    -----      -----    -----
  +--> ?CO?3264GPS____

?PR?MODE3_SJ_R?3264GPS____                 -----    -----      -----    -----      -----    -----      -----    -----
  +--> ?CO?3264GPS____

?PR?MODE4567_RQ_R?3264GPS____              -----    -----      -----    -----      -----    -----      0032H    0001H
  +--> ?CO?3264GPS____

?PR?MODE4_SJ_R?3264GPS____                 -----    -----      -----    -----      -----    -----      -----    -----
  +--> ?CO?3264GPS____

?PR?MODE5_SJ_R?3264GPS____                 -----    -----      -----    -----      -----    -----      -----    -----
  +--> ?CO?3264GPS____

?PR?MODE6_SJ_R?3264GPS____                 -----    -----      -----    -----      -----    -----      -----    -----
  +--> ?CO?3264GPS____

?PR?MODE7_SJ_R?3264GPS____                 -----    -----      -----    -----      -----    -----      -----    -----
  +--> ?CO?3264GPS____

?PR?MODE8_SJ_R?3264GPS____                 -----    -----      -----    -----      -----    -----      -----    -----
  +--> ?CO?3264GPS____

?PR?MODE9_SJ_R?3264GPS____                 -----    -----      -----    -----      -----    -----      -----    -----
  +--> ?CO?3264GPS____

?PR?MODE10_SJ_R?3264GPS____                -----    -----      -----    -----      -----    -----      -----    -----
  +--> ?CO?3264GPS____

?PR?MODE11_SJ_R?3264GPS____                -----    -----      -----    -----      -----    -----      -----    -----
  +--> ?CO?3264GPS____

?PR?MODE8_XQ_R?3264GPS____                 -----    -----      -----    -----      -----    -----      -----    -----
  +--> ?CO?3264GPS____

?PR?MODESLEEP_R?3264GPS____                -----    -----      -----    -----      -----    -----      -----    -----
  +--> ?CO?3264GPS____

?PR?SETNIAN_R?3264GPS____                  -----    -----      -----    -----      -----    -----      -----    -----
  +--> ?CO?3264GPS____

BL51 BANKED LINKER/LOCATER V6.22.2.0                                                  01/14/2022  09:01:27  PAGE 8


?PR?SETYUE_R?3264GPS____                   -----    -----      -----    -----      -----    -----      -----    -----
  +--> ?CO?3264GPS____

?PR?SETRI_R?3264GPS____                    -----    -----      -----    -----      -----    -----      -----    -----
  +--> ?CO?3264GPS____

?PR?SETSHI_R?3264GPS____                   -----    -----      -----    -----      -----    -----      -----    -----
  +--> ?CO?3264GPS____

?PR?SETFEN_R?3264GPS____                   -----    -----      -----    -----      -----    -----      -----    -----
  +--> ?CO?3264GPS____

?PR?SETMIAO_R?3264GPS____                  -----    -----      -----    -----      -----    -----      -----    -----
  +--> ?CO?3264GPS____

?PR?SETLIANGDU_R?3264GPS____               -----    -----      -----    -----      -----    -----      -----    -----
  +--> ?CO?3264GPS____

?PR?SETMINLIANGDU_R?3264GPS____            -----    -----      -----    -----      -----    -----      -----    -----
  +--> ?CO?3264GPS____

?PR?SETLIANGDUG_R?3264GPS____              -----    -----      -----    -----      -----    -----      -----    -----
  +--> ?CO?3264GPS____

?PR?NTCBUCHANG_R?3264GPS____               -----    -----      -----    -----      -----    -----      -----    -----
  +--> ?CO?3264GPS____

?PR?YAOKONG_R?3264GPS____                  -----    -----      -----    -----      -----    -----      -----    -----
  +--> ?CO?3264GPS____

?PR?XUEXI_R?3264GPS____                    -----    -----      -----    -----      -----    -----      0032H    0003H
  +--> ?CO?3264GPS____

?PR?LOADDATA_G?3264GPS____                 -----    -----      -----    -----      -----    -----      -----    -----
  +--> ?PR?MODE0123_RQ_G?3264GPS____
  +--> ?PR?MODE0_SJ_G?3264GPS____
  +--> ?PR?MODE1_SJ_RGB?3264GPS____
  +--> ?PR?MODE2_SJ_G?3264GPS____
  +--> ?PR?MODE3_SJ_G?3264GPS____
  +--> ?PR?MODE4567_RQ_G?3264GPS____
  +--> ?PR?MODE4_SJ_G?3264GPS____
  +--> ?PR?MODE5_SJ_G?3264GPS____
  +--> ?PR?MODE6_SJ_G?3264GPS____
  +--> ?PR?MODE7_SJ_G?3264GPS____
  +--> ?PR?MODE8_SJ_G?3264GPS____
  +--> ?PR?MODE9_SJ_G?3264GPS____
  +--> ?PR?MODE10_SJ_G?3264GPS____
  +--> ?PR?MODE11_SJ_G?3264GPS____
  +--> ?PR?MODE8_RQ_G?3264GPS____
  +--> ?PR?MODE8_NL_G?3264GPS____
  +--> ?PR?MODE8_XQ_G?3264GPS____
  +--> ?PR?_DELAY?3264GPS____
  +--> ?PR?SETNIAN_G?3264GPS____
  +--> ?PR?SETYUE_G?3264GPS____
  +--> ?PR?SETRI_G?3264GPS____
  +--> ?PR?SETSHI_G?3264GPS____
  +--> ?PR?SETFEN_G?3264GPS____
BL51 BANKED LINKER/LOCATER V6.22.2.0                                                  01/14/2022  09:01:27  PAGE 9


  +--> ?PR?SETMIAO_G?3264GPS____
  +--> ?PR?SETLIANGDU_G?3264GPS____
  +--> ?PR?SETMINLIANGDU_G?3264GPS____
  +--> ?PR?SETLIANGDUG_G?3264GPS____
  +--> ?PR?NTCBUCHANG_G?3264GPS____
  +--> ?PR?YAOKONG_G?3264GPS____
  +--> ?PR?XUEXI_G?3264GPS____

?PR?MODE0123_RQ_G?3264GPS____              -----    -----      -----    -----      -----    -----      0032H    0001H
  +--> ?CO?3264GPS____

?PR?MODE0_SJ_G?3264GPS____                 -----    -----      0054H    0002H      -----    -----      -----    -----
  +--> ?CO?3264GPS____

?PR?MODE2_SJ_G?3264GPS____                 -----    -----      -----    -----      -----    -----      -----    -----
  +--> ?CO?3264GPS____
  +--> ?PR?_DELAYUS?3264GPS____

?PR?MODE3_SJ_G?3264GPS____                 -----    -----      -----    -----      -----    -----      -----    -----
  +--> ?CO?3264GPS____
  +--> ?PR?_DELAYUS?3264GPS____

?PR?MODE4567_RQ_G?3264GPS____              -----    -----      -----    -----      -----    -----      0032H    0001H
  +--> ?CO?3264GPS____

?PR?MODE4_SJ_G?3264GPS____                 -----    -----      -----    -----      -----    -----      -----    -----
  +--> ?CO?3264GPS____

?PR?MODE5_SJ_G?3264GPS____                 -----    -----      -----    -----      -----    -----      -----    -----
  +--> ?CO?3264GPS____

?PR?MODE6_SJ_G?3264GPS____                 -----    -----      -----    -----      -----    -----      -----    -----
  +--> ?CO?3264GPS____
  +--> ?PR?_DELAYUS?3264GPS____

?PR?MODE7_SJ_G?3264GPS____                 -----    -----      -----    -----      -----    -----      -----    -----
  +--> ?CO?3264GPS____
  +--> ?PR?_DELAYUS?3264GPS____

?PR?MODE8_SJ_G?3264GPS____                 -----    -----      -----    -----      -----    -----      -----    -----
  +--> ?CO?3264GPS____

?PR?MODE9_SJ_G?3264GPS____                 -----    -----      -----    -----      -----    -----      -----    -----
  +--> ?CO?3264GPS____

?PR?MODE10_SJ_G?3264GPS____                -----    -----      -----    -----      -----    -----      -----    -----
  +--> ?CO?3264GPS____
  +--> ?PR?_DELAYUS?3264GPS____

?PR?MODE11_SJ_G?3264GPS____                -----    -----      -----    -----      -----    -----      -----    -----
  +--> ?CO?3264GPS____
  +--> ?PR?_DELAYUS?3264GPS____

?PR?MODE8_RQ_G?3264GPS____                 -----    -----      -----    -----      -----    -----      -----    -----
  +--> ?CO?3264GPS____

?PR?MODE8_NL_G?3264GPS____                 -----    -----      -----    -----      -----    -----      -----    -----
BL51 BANKED LINKER/LOCATER V6.22.2.0                                                  01/14/2022  09:01:27  PAGE 10


  +--> ?CO?3264GPS____

?PR?MODE8_XQ_G?3264GPS____                 -----    -----      -----    -----      -----    -----      -----    -----
  +--> ?CO?3264GPS____

?PR?SETNIAN_G?3264GPS____                  -----    -----      -----    -----      -----    -----      -----    -----
  +--> ?PR?SHEZHI?3264GPS____
  +--> ?CO?3264GPS____

?PR?SHEZHI?3264GPS____                     -----    -----      -----    -----      -----    -----      -----    -----
  +--> ?CO?3264GPS____

?PR?SETYUE_G?3264GPS____                   -----    -----      -----    -----      -----    -----      -----    -----
  +--> ?PR?SHEZHI?3264GPS____
  +--> ?CO?3264GPS____

?PR?SETRI_G?3264GPS____                    -----    -----      -----    -----      -----    -----      -----    -----
  +--> ?PR?SHEZHI?3264GPS____
  +--> ?CO?3264GPS____

?PR?SETSHI_G?3264GPS____                   -----    -----      -----    -----      -----    -----      -----    -----
  +--> ?PR?SHEZHI?3264GPS____
  +--> ?CO?3264GPS____

?PR?SETFEN_G?3264GPS____                   -----    -----      -----    -----      -----    -----      -----    -----
  +--> ?PR?SHEZHI?3264GPS____
  +--> ?CO?3264GPS____

?PR?SETMIAO_G?3264GPS____                  -----    -----      -----    -----      -----    -----      -----    -----
  +--> ?PR?SHEZHI?3264GPS____
  +--> ?CO?3264GPS____

?PR?SETLIANGDU_G?3264GPS____               -----    -----      -----    -----      -----    -----      -----    -----
  +--> ?PR?SHEZHI?3264GPS____
  +--> ?CO?3264GPS____

?PR?SETMINLIANGDU_G?3264GPS____            -----    -----      -----    -----      -----    -----      -----    -----
  +--> ?PR?SHEZHI?3264GPS____
  +--> ?CO?3264GPS____

?PR?SETLIANGDUG_G?3264GPS____              -----    -----      -----    -----      -----    -----      -----    -----
  +--> ?PR?SHEZHI?3264GPS____
  +--> ?CO?3264GPS____

?PR?NTCBUCHANG_G?3264GPS____               -----    -----      -----    -----      -----    -----      -----    -----
  +--> ?CO?3264GPS____

?PR?YAOKONG_G?3264GPS____                  -----    -----      -----    -----      -----    -----      -----    -----
  +--> ?PR?SHEZHI?3264GPS____
  +--> ?CO?3264GPS____

?PR?XUEXI_G?3264GPS____                    -----    -----      -----    -----      -----    -----      0032H    0006H
  +--> ?CO?3264GPS____

?PR?SENDDATE_RGB?3264GPS____               -----    -----      -----    -----      -----    -----      -----    -----
  +--> ?PR?_SCAN?3264GPS____

BL51 BANKED LINKER/LOCATER V6.22.2.0                                                  01/14/2022  09:01:27  PAGE 11


?PR?IR_ICON?3264GPS____                    -----    -----      -----    -----      -----    -----      -----    -----
  +--> ?PR?WRITE_EEP?3264GPS____

?PR?_SETTIME?3264GPS____                   -----    -----      -----    -----      -----    -----      -----    -----
  +--> ?PR?_READ_RANDOM?3264GPS____
  +--> ?PR?_MODIFYTIME?3264GPS____
  +--> ?PR?GETALLTIME?3264GPS____

*** NEW ROOT ***************************************************

?PR?ADC?3264GPS____                        -----    -----      -----    -----      -----    -----      0038H    0002H
  +--> ?CO?3264GPS____

*** NEW ROOT ***************************************************

?PR?UART?3264GPS____                       -----    -----      0056H    0001H      -----    -----      -----    -----



SYMBOL TABLE OF MODULE:  3264GPSòÝøÆ-12 (?C_STARTUP)

  VALUE           TYPE          NAME
  ----------------------------------

  -------         MODULE        ?C_STARTUP
  C:9AEBH         SEGMENT       ?C_C51STARTUP
  I:008DH         SEGMENT       ?STACK
  C:0000H         PUBLIC        ?C_STARTUP
  D:00E0H         SYMBOL        ACC
  D:00F0H         SYMBOL        B
  D:0083H         SYMBOL        DPH
  D:0082H         SYMBOL        DPL
  N:0000H         SYMBOL        IBPSTACK
  N:0100H         SYMBOL        IBPSTACKTOP
  N:0080H         SYMBOL        IDATALEN
  C:9AEEH         SYMBOL        IDATALOOP
  N:0000H         SYMBOL        PBPSTACK
  N:0100H         SYMBOL        PBPSTACKTOP
  N:0000H         SYMBOL        PDATALEN
  N:0000H         SYMBOL        PDATASTART
  N:0000H         SYMBOL        PPAGE
  N:0000H         SYMBOL        PPAGEENABLE
  D:00A0H         SYMBOL        PPAGE_SFR
  D:0081H         SYMBOL        SP
  C:9AEBH         SYMBOL        STARTUP1
  N:0000H         SYMBOL        XBPSTACK
  N:0000H         SYMBOL        XBPSTACKTOP
  N:0000H         SYMBOL        XDATALEN
  N:0000H         SYMBOL        XDATASTART
  C:0000H         LINE#         126
  C:9AEBH         LINE#         133
  C:9AEDH         LINE#         134
  C:9AEEH         LINE#         135
  C:9AEFH         LINE#         136
  C:9AF1H         LINE#         185
  C:9AF4H         LINE#         196
  -------         ENDMOD        ?C_STARTUP
BL51 BANKED LINKER/LOCATER V6.22.2.0                                                  01/14/2022  09:01:27  PAGE 12



  -------         MODULE        3264GPS____
  C:0000H         SYMBOL        _ICE_DUMMY_
  D:0093H         PUBLIC        P0M1
  C:320AH         PUBLIC        settime
  D:0096H         PUBLIC        P2M0
  D:0091H         PUBLIC        P1M1
  D:0080H         PUBLIC        P0
  C:A734H         PUBLIC        DS18B20_RST
  I:005BH         PUBLIC        T_int
  D:00B2H         PUBLIC        P3M0
  D:0095H         PUBLIC        P2M1
  D:0090H         PUBLIC        P1
  D:00B4H         PUBLIC        P4M0
  D:00B1H         PUBLIC        P3M1
  D:00A0H         PUBLIC        P2
  B:0080H.6       PUBLIC        R1
  D:00B3H         PUBLIC        P4M1
  D:00B0H         PUBLIC        P3
  C:A599H         PUBLIC        Yaokong_G
  C:A44CH         PUBLIC        _read_random
  B:00C0H.4       PUBLIC        R2
  D:00C0H         PUBLIC        P4
  C:9D98H         PUBLIC        Mode0123_RQ_R
  D:00C8H         PUBLIC        P5
  C:8E3AH         PUBLIC        SetShi_R
  X:000DH         PUBLIC        yue1
  B:00A8H.7       PUBLIC        EA
  C:A5D2H         PUBLIC        read_current
  X:000EH         PUBLIC        yue2
  B:0020H.4       PUBLIC        K_ESC
  C:A3A5H         PUBLIC        _DS3231_write_byte
  C:8A03H         PUBLIC        Mode4567_RQ_G
  C:A499H         PUBLIC        SetYue_G
  B:0080H.0       PUBLIC        IA
  B:0080H.1       PUBLIC        IB
  B:0080H.2       PUBLIC        IC
  C:9E19H         PUBLIC        Read18B20
  C:3218H         PUBLIC        t_tab
  I:005CH         PUBLIC        XSMOD
  X:000FH         PUBLIC        ri1
  B:0080H.3       PUBLIC        ID
  C:A64EH         PUBLIC        Mode10_SJ_G
  X:0010H         PUBLIC        ri2
  B:00A0H.6       PUBLIC        CK
  B:00A8H.5       PUBLIC        EADC
  D:00A8H         PUBLIC        IE
  C:A666H         PUBLIC        Mode11_SJ_G
  C:9397H         PUBLIC        Yaokong_R
  C:A4F2H         PUBLIC        shezhi
  I:005DH         PUBLIC        Set_COLOR
  D:00C5H         PUBLIC        IAP_CMD
  C:A4C2H         PUBLIC        SetRi_G
  C:A1DCH         PUBLIC        DS3231_Initial
  B:00A0H.5       PUBLIC        OE
  D:00BDH         PUBLIC        ADC_RES
  C:81EAH         PUBLIC        Mode4567_RQ_R
BL51 BANKED LINKER/LOCATER V6.22.2.0                                                  01/14/2022  09:01:27  PAGE 13


  C:987FH         PUBLIC        SetYue_R
  B:0090H.7       PUBLIC        DQ
  B:0020H.5       PUBLIC        ADCL
  C:1D59H         PUBLIC        Num12
  B:0020H.6       PUBLIC        DW_OK
  C:1E69H         PUBLIC        Num13
  C:1B79H         PUBLIC        Num14
  B:0020H.7       PUBLIC        K_SET
  B:00A8H.4       PUBLIC        ES
  C:8633H         PUBLIC        Mode10_SJ_R
  C:1F39H         PUBLIC        Num16
  D:00B8H         PUBLIC        IP
  C:877EH         PUBLIC        Mode11_SJ_R
  C:0003H         PUBLIC        TIM0
  B:0098H.0       PUBLIC        RI
  C:991EH         PUBLIC        SetRi_R
  I:005EH         PUBLIC        IR_date
  B:00D0H.7       PUBLIC        CY
  B:0021H.0       PUBLIC        PM
  B:0021H.1       PUBLIC        ADCT
  X:0011H         PUBLIC        SJ
  C:92C7H         PUBLIC        Uart
  C:9C03H         PUBLIC        SetLiangdu_G
  B:00A0H.4       PUBLIC        LS
  D:00C3H         PUBLIC        IAP_ADDRH
  I:0065H         PUBLIC        Light_G
  C:2649H         PUBLIC        HZ
  C:A307H         PUBLIC        _SendByte
  I:0066H         PUBLIC        NTC_buchang
  X:0017H         PUBLIC        RQ
  X:001DH         PUBLIC        r1
  B:00B8H.4       PUBLIC        PS
  X:001EH         PUBLIC        r2
  D:00C4H         PUBLIC        IAP_ADDRL
  D:00D8H         PUBLIC        CCON
  X:001FH         PUBLIC        t1
  C:9B77H         PUBLIC        IR_ICON
  C:88C9H         PUBLIC        LoadData_G
  I:0067H         PUBLIC        IR_Key
  X:0020H         PUBLIC        t2
  C:805DH         PUBLIC        main
  I:006CH         PUBLIC        Light_L
  C:9739H         PUBLIC        _scan
  I:006DH         PUBLIC        COLORMODE
  C:9A5AH         PUBLIC        SetLiangdu_R
  X:0021H         PUBLIC        y1
  B:0021H.2       PUBLIC        RY
  X:0022H         PUBLIC        y2
  B:0021H.3       PUBLIC        SHAN
  I:006EH         PUBLIC        Light_R
  X:0023H         PUBLIC        week
  C:A7BBH         PUBLIC        Ack_I2C
  D:00BBH         PUBLIC        P4SW
  C:A136H         PUBLIC        SendData_G
  B:0021H.4       PUBLIC        ack
  C:9D14H         PUBLIC        _GetWeek
  C:8C39H         PUBLIC        LoadData_R
BL51 BANKED LINKER/LOCATER V6.22.2.0                                                  01/14/2022  09:01:27  PAGE 14


  C:30CFH         PUBLIC        year_code
  B:0021H.5       PUBLIC        xuexi_OK
  D:00BCH         PUBLIC        ADC_CONTR
  D:0099H         PUBLIC        SBUF
  D:0087H         PUBLIC        PCON
  C:75FAH         PUBLIC        KeyScan
  C:952EH         PUBLIC        GetTime
  I:006FH         PUBLIC        Colortime
  D:0098H         PUBLIC        SCON
  C:A79CH         PUBLIC        UartInit
  C:A556H         PUBLIC        read_byte
  I:0070H         PUBLIC        Li
  B:00A0H.1       PUBLIC        KeyAdd
  D:0089H         PUBLIC        TMOD
  D:0088H         PUBLIC        TCON
  C:9101H         PUBLIC        ModeSleep_R
  C:7A2EH         PUBLIC        ShowLogo
  D:0023H         PUBLIC        BD1
  D:002BH         PUBLIC        BD2
  B:00A0H.2       PUBLIC        KeyDec
  C:3029H         PUBLIC        temp
  C:A510H         PUBLIC        Read_EEP
  B:0021H.6       PUBLIC        WriteEpprom_S
  C:A189H         PUBLIC        SendData_R
  D:0033H         PUBLIC        GD1
  C:7E51H         PUBLIC        Xuexi_G
  D:003BH         PUBLIC        GD2
  C:9F63H         PUBLIC        _SetTime
  C:A6FBH         PUBLIC        _delay18b20
  D:008EH         PUBLIC        AUXR
  B:00C0H.1       PUBLIC        GPS_POW
  C:A534H         PUBLIC        RcvByte
  D:00C7H         PUBLIC        IAP_CONTR
  C:A33DH         PUBLIC        SetMinLiangdu_G
  C:A5B7H         PUBLIC        _write_byte
  C:A721H         PUBLIC        _Sector_Erase
  C:A7D2H         PUBLIC        IIC_Start
  D:0043H         PUBLIC        RD1
  B:00A0H.3       PUBLIC        KeyEsc
  C:7C40H         PUBLIC        ADC
  C:8369H         PUBLIC        Xuexi_R
  C:A578H         PUBLIC        DS18B20_TEST
  I:0071H         PUBLIC        Liangdu
  D:004BH         PUBLIC        RD2
  C:9C8CH         PUBLIC        SendDate_RGB
  C:A3D7H         PUBLIC        Write_EEP
  B:0021H.7       PUBLIC        RX_over
  B:00A8H.1       PUBLIC        ET0
  B:00A8H.3       PUBLIC        ET1
  D:008CH         PUBLIC        TH0
  D:008DH         PUBLIC        TH1
  C:9693H         PUBLIC        GetAllTime
  I:0072H         PUBLIC        Min_Liangdu
  B:0088H.2       PUBLIC        IT1
  B:00A8H.2       PUBLIC        EX1
  C:9EFAH         PUBLIC        SetMinLiangdu_R
  I:0073H         PUBLIC        NL_yue
BL51 BANKED LINKER/LOCATER V6.22.2.0                                                  01/14/2022  09:01:27  PAGE 15


  C:A7C9H         PUBLIC        Delay5US
  D:008AH         PUBLIC        TL0
  D:008BH         PUBLIC        TL1
  C:23A9H         PUBLIC        NL8
  C:A67EH         PUBLIC        _Byte_Program
  I:0074H         PUBLIC        NL_ri
  D:00C2H         PUBLIC        IAP_DATA
  B:0088H.4       PUBLIC        TR0
  B:0088H.6       PUBLIC        TR1
  C:6F20H         PUBLIC        Mode1_SJ_B
  B:00B0H.7       PUBLIC        SDA
  B:00A0H.0       PUBLIC        KeySet
  D:00C1H         PUBLIC        WDT_CONTR
  X:0024H         PUBLIC        nian1
  X:0025H         PUBLIC        miao1
  D:0053H         PUBLIC        row
  C:1C19H         PUBLIC        Num14B
  X:0026H         PUBLIC        nian2
  X:0027H         PUBLIC        miao2
  C:2E69H         PUBLIC        NLday
  C:A7B0H         PUBLIC        _Delayus
  C:A70EH         PUBLIC        gonggongdaima
  B:0022H.0       PUBLIC        fu
  C:2EE9H         PUBLIC        ZMlogo
  C:2099H         PUBLIC        Num16B
  C:A21CH         PUBLIC        Mode0_SJ_G
  D:009DH         PUBLIC        P1ASF
  C:6CA0H         PUBLIC        Mode1_SJ_G
  C:A78BH         PUBLIC        SetMiao_G
  C:A5ECH         PUBLIC        SetNian_G
  B:0022H.1       PUBLIC        SHAN2
  C:A299H         PUBLIC        Mode2_SJ_G
  C:A7DBH         PUBLIC        IIC_Stop
  C:A2D0H         PUBLIC        Mode3_SJ_G
  C:A6ABH         PUBLIC        Mode4_SJ_G
  I:0075H         PUBLIC        Set_S
  D:00BEH         PUBLIC        ADC_RESL
  C:9464H         PUBLIC        Mode8_NL_G
  C:A6BFH         PUBLIC        Mode5_SJ_G
  I:0076H         PUBLIC        T_dec
  C:A409H         PUBLIC        time1
  C:A61EH         PUBLIC        Mode6_SJ_G
  B:00B0H.6       PUBLIC        SCL
  C:A636H         PUBLIC        Mode7_SJ_G
  C:A6D3H         PUBLIC        Mode8_SJ_G
  C:A6E7H         PUBLIC        Mode9_SJ_G
  C:A371H         PUBLIC        SetLiangduG_G
  B:0022H.2       PUBLIC        NTC
  X:0028H         SYMBOL        TH3231
  C:2289H         PUBLIC        Num5
  C:6A20H         PUBLIC        Mode1_SJ_R
  C:A027H         PUBLIC        Write_canshi
  C:9014H         PUBLIC        SetMiao_R
  C:9E8BH         PUBLIC        SetNian_R
  C:64C2H         PUBLIC        Mode2_SJ_R
  C:30CBH         PUBLIC        banben
  C:2329H         PUBLIC        Num8
BL51 BANKED LINKER/LOCATER V6.22.2.0                                                  01/14/2022  09:01:27  PAGE 16


  C:97DDH         PUBLIC        Mode8_RQ_G
  C:6771H         PUBLIC        Mode3_SJ_R
  C:A25BH         PUBLIC        NTCbuchang_G
  C:3211H         PUBLIC        setdata
  C:21D9H         PUBLIC        Num9
  C:3231H         PUBLIC        Mode4_SJ_R
  X:002AH         PUBLIC        fen1
  C:5DD8H         PUBLIC        Mode5_SJ_R
  X:002BH         PUBLIC        fen2
  C:4C3AH         PUBLIC        Mode6_SJ_R
  C:5509H         PUBLIC        Mode7_SJ_R
  C:31FBH         PUBLIC        day_code1
  C:3F38H         PUBLIC        Mode8_SJ_R
  C:A77AH         PUBLIC        SetFen_G
  C:3204H         PUBLIC        day_code2
  I:0077H         PUBLIC        Liangdu_G
  B:0022H.3       PUBLIC        Zhi_12
  C:95E2H         PUBLIC        Mode8_XQ_G
  C:8B2CH         PUBLIC        Mode9_SJ_R
  C:9FC6H         PUBLIC        SetLiangduG_R
  C:002EH         PUBLIC        Mode0_SJ_RGB
  C:A746H         PUBLIC        _Delay
  B:00C0H.6       PUBLIC        POW_OK
  C:781BH         PUBLIC        Mode1_SJ_RGB
  B:00B0H.4       PUBLIC        IR_POW
  B:0080H.7       PUBLIC        B1
  D:00C6H         PUBLIC        IAP_TRIG
  B:00A0H.7       PUBLIC        B2
  C:91E6H         PUBLIC        Err3231
  C:A605H         PUBLIC        _Byte_Read
  X:002CH         PUBLIC        ADC_L
  B:0022H.4       PUBLIC        K_ADD
  C:99BDH         PUBLIC        NTCbuchang_R
  X:002EH         PUBLIC        shi1
  X:002FH         PUBLIC        shi2
  B:0022H.5       PUBLIC        K_DEC
  B:0080H.5       PUBLIC        G1
  C:23C9H         PUBLIC        Num16x32
  C:A695H         PUBLIC        xianshi
  C:71A0H         PUBLIC        GetNL_ri
  B:0080H.4       PUBLIC        G2
  C:1B29H         PUBLIC        maohao
  C:73D3H         PUBLIC        Mode0123_RQ_G
  C:8F27H         PUBLIC        SetFen_R
  C:A769H         PUBLIC        SetShi_G
  I:0078H         PUBLIC        GPRMC
  D:00D0H         PUBLIC        PSW
  C:A087H         PUBLIC        Mode8_XQ_R
  X:0030H         PUBLIC        ADC_T
  C:8D42H         PUBLIC        int1
  C:A758H         PUBLIC        _ModifyTime
  C:84E2H         PUBLIC        _get_moon_day
  D:0094H         PUBLIC        P0M0
  -------         PROC          _SCAN
  D:0007H         SYMBOL        Value
  C:9739H         LINE#         84
  C:9739H         LINE#         85
BL51 BANKED LINKER/LOCATER V6.22.2.0                                                  01/14/2022  09:01:27  PAGE 17


  C:9739H         LINE#         86
  C:9779H         LINE#         87
  C:9779H         LINE#         88
  C:9779H         LINE#         89
  C:977BH         LINE#         90
  C:977DH         LINE#         92
  C:977DH         LINE#         93
  C:9781H         LINE#         94
  C:9783H         LINE#         96
  C:9783H         LINE#         97
  C:9787H         LINE#         98
  C:9789H         LINE#         100
  C:9789H         LINE#         101
  C:9791H         LINE#         102
  C:9792H         LINE#         104
  C:9792H         LINE#         105
  C:9794H         LINE#         106
  C:9796H         LINE#         108
  C:9796H         LINE#         109
  C:979AH         LINE#         110
  C:979CH         LINE#         112
  C:979CH         LINE#         113
  C:97A0H         LINE#         114
  C:97A2H         LINE#         116
  C:97A2H         LINE#         117
  C:97AAH         LINE#         118
  C:97ABH         LINE#         120
  C:97ABH         LINE#         121
  C:97ADH         LINE#         122
  C:97AFH         LINE#         124
  C:97AFH         LINE#         125
  C:97B3H         LINE#         126
  C:97B5H         LINE#         128
  C:97B5H         LINE#         129
  C:97B9H         LINE#         130
  C:97BBH         LINE#         132
  C:97BBH         LINE#         133
  C:97C3H         LINE#         134
  C:97C4H         LINE#         136
  C:97C4H         LINE#         137
  C:97C6H         LINE#         138
  C:97C8H         LINE#         140
  C:97C8H         LINE#         141
  C:97CCH         LINE#         142
  C:97CEH         LINE#         144
  C:97CEH         LINE#         145
  C:97D2H         LINE#         146
  C:97D4H         LINE#         148
  C:97D4H         LINE#         149
  C:97DCH         LINE#         150
  C:97DCH         LINE#         152
  C:97DCH         LINE#         153
  C:97DCH         LINE#         154
  C:97DCH         LINE#         155
  -------         ENDPROC       _SCAN
  -------         PROC          L?1058
  -------         ENDPROC       L?1058
BL51 BANKED LINKER/LOCATER V6.22.2.0                                                  01/14/2022  09:01:27  PAGE 18


  -------         PROC          _GET_MOON_DAY
  D:0007H         SYMBOL        month_p
  D:0004H         SYMBOL        table_addr
  -------         DO            
  D:0006H         SYMBOL        rtn
  -------         ENDDO         
  C:84E2H         LINE#         111
  C:84E2H         LINE#         112
  C:84E2H         LINE#         113
  C:84E4H         LINE#         114
  C:8523H         LINE#         115
  C:8523H         LINE#         116
  C:8523H         LINE#         117
  C:8537H         LINE#         118
  C:853AH         LINE#         119
  C:853AH         LINE#         120
  C:854EH         LINE#         121
  C:8551H         LINE#         122
  C:8551H         LINE#         123
  C:8565H         LINE#         124
  C:8568H         LINE#         125
  C:8568H         LINE#         126
  C:857CH         LINE#         127
  C:857FH         LINE#         128
  C:857FH         LINE#         129
  C:8593H         LINE#         130
  C:8596H         LINE#         131
  C:8596H         LINE#         132
  C:85AAH         LINE#         133
  C:85ADH         LINE#         134
  C:85ADH         LINE#         135
  C:85BEH         LINE#         136
  C:85C0H         LINE#         137
  C:85C0H         LINE#         138
  C:85D1H         LINE#         139
  C:85D3H         LINE#         140
  C:85D3H         LINE#         141
  C:85E4H         LINE#         142
  C:85E6H         LINE#         143
  C:85E6H         LINE#         144
  C:85F7H         LINE#         145
  C:85F9H         LINE#         146
  C:85F9H         LINE#         147
  C:860AH         LINE#         148
  C:860CH         LINE#         149
  C:860CH         LINE#         150
  C:861DH         LINE#         151
  C:861FH         LINE#         152
  C:861FH         LINE#         153
  C:8630H         LINE#         154
  C:8630H         LINE#         155
  C:8630H         LINE#         156
  C:8630H         LINE#         157
  C:8630H         LINE#         158
  C:8632H         LINE#         159
  -------         ENDPROC       _GET_MOON_DAY
  -------         PROC          _GETWEEK
BL51 BANKED LINKER/LOCATER V6.22.2.0                                                  01/14/2022  09:01:27  PAGE 19


  D:0007H         SYMBOL        year
  D:0005H         SYMBOL        month
  D:0003H         SYMBOL        day
  -------         DO            
  D:0006H         SYMBOL        i
  -------         ENDDO         
  C:9D14H         LINE#         161
  C:9D14H         LINE#         163
  C:9D14H         LINE#         165
  C:9D1AH         LINE#         167
  C:9D21H         LINE#         168
  C:9D21H         LINE#         169
  C:9D29H         LINE#         170
  C:9D2FH         LINE#         172
  C:9D32H         LINE#         174
  C:9D3DH         LINE#         175
  C:9D40H         LINE#         177
  C:9D47H         LINE#         178
  C:9D47H         LINE#         179
  C:9D5AH         LINE#         180
  C:9D63H         LINE#         181
  C:9D67H         LINE#         182
  C:9D67H         LINE#         183
  C:9D6CH         LINE#         184
  C:9D72H         LINE#         185
  C:9D74H         LINE#         187
  C:9D7BH         LINE#         189
  C:9D86H         LINE#         190
  C:9D89H         LINE#         191
  C:9D8FH         LINE#         192
  C:9D97H         LINE#         193
  -------         ENDPROC       _GETWEEK
  -------         PROC          GETNL_RI
  -------         DO            
  D:0003H         SYMBOL        mnum
  I:0082H         SYMBOL        year
  I:0083H         SYMBOL        month
  I:0084H         SYMBOL        date
  I:0085H         SYMBOL        mm
  I:0086H         SYMBOL        dd
  I:0087H         SYMBOL        ldays
  I:0088H         SYMBOL        RunYue
  I:0089H         SYMBOL        days
  I:008BH         SYMBOL        addr
  -------         ENDDO         
  C:71A0H         LINE#         198
  C:71A0H         LINE#         199
  C:71A0H         LINE#         200
  C:71A2H         LINE#         206
  C:71B3H         LINE#         207
  C:71C1H         LINE#         208
  C:71CDH         LINE#         209
  C:71DAH         LINE#         210
  C:71F5H         LINE#         211
  C:71FAH         LINE#         213
  C:71FDH         LINE#         214
  C:7201H         LINE#         216
BL51 BANKED LINKER/LOCATER V6.22.2.0                                                  01/14/2022  09:01:27  PAGE 20


  C:7209H         LINE#         224
  C:7212H         LINE#         225
  C:7222H         LINE#         227
  C:7247H         LINE#         228
  C:7255H         LINE#         229
  C:725DH         LINE#         231
  C:726DH         LINE#         232
  C:726DH         LINE#         233
  C:7276H         LINE#         235
  C:728FH         LINE#         236
  C:7291H         LINE#         237
  C:7293H         LINE#         238
  C:729FH         LINE#         239
  C:729FH         LINE#         240
  C:72A6H         LINE#         241
  C:72B1H         LINE#         242
  C:72B1H         LINE#         244
  C:72BFH         LINE#         245
  C:72C4H         LINE#         246
  C:72CBH         LINE#         247
  C:72CDH         LINE#         249
  C:72CDH         LINE#         250
  C:72D8H         LINE#         251
  C:72E4H         LINE#         252
  C:72FDH         LINE#         253
  C:72FFH         LINE#         254
  C:7301H         LINE#         255
  C:7310H         LINE#         256
  C:7310H         LINE#         257
  C:7317H         LINE#         258
  C:7325H         LINE#         259
  C:7325H         LINE#         261
  C:7333H         LINE#         262
  C:7338H         LINE#         263
  C:7343H         LINE#         264
  C:7343H         LINE#         266
  C:7352H         LINE#         267
  C:7356H         LINE#         269
  C:7358H         LINE#         271
  C:7365H         LINE#         272
  C:7366H         LINE#         273
  C:736CH         LINE#         274
  C:736EH         LINE#         278
  C:7376H         LINE#         279
  C:7381H         LINE#         280
  C:738AH         LINE#         282
  C:7390H         LINE#         283
  C:7390H         LINE#         284
  C:7396H         LINE#         286
  C:7399H         LINE#         287
  C:739BH         LINE#         288
  C:739DH         LINE#         290
  C:739DH         LINE#         291
  C:73A4H         LINE#         292
  C:73AAH         LINE#         293
  C:73AAH         LINE#         296
  C:73B0H         LINE#         297
BL51 BANKED LINKER/LOCATER V6.22.2.0                                                  01/14/2022  09:01:27  PAGE 21


  C:73B0H         LINE#         298
  C:73B3H         LINE#         299
  C:73BAH         LINE#         300
  C:73BCH         LINE#         301
  C:73BCH         LINE#         304
  C:73C9H         LINE#         305
  C:73CFH         LINE#         306
  C:73D2H         LINE#         307
  -------         ENDPROC       GETNL_RI
  -------         PROC          DELAY5US
  C:A7C9H         LINE#         48
  C:A7C9H         LINE#         49
  C:A7C9H         LINE#         50
  C:A7CAH         LINE#         51
  C:A7CBH         LINE#         52
  C:A7CCH         LINE#         53
  C:A7CDH         LINE#         54
  C:A7CEH         LINE#         55
  C:A7CFH         LINE#         56
  C:A7D0H         LINE#         57
  C:A7D1H         LINE#         58
  -------         ENDPROC       DELAY5US
  -------         PROC          IIC_START
  C:A7D2H         LINE#         63
  C:A7D2H         LINE#         64
  C:A7D2H         LINE#         65
  C:A7D4H         LINE#         66
  C:A7D6H         LINE#         67
  C:A7D8H         LINE#         68
  C:A7DAH         LINE#         69
  -------         ENDPROC       IIC_START
  -------         PROC          IIC_STOP
  C:A7DBH         LINE#         74
  C:A7DBH         LINE#         75
  C:A7DBH         LINE#         76
  C:A7DDH         LINE#         77
  C:A7DFH         LINE#         78
  C:A7E1H         LINE#         79
  C:A7E3H         LINE#         80
  -------         ENDPROC       IIC_STOP
  -------         PROC          _SENDBYTE
  D:0007H         SYMBOL        c
  -------         DO            
  D:0006H         SYMBOL        BitCnt
  -------         ENDDO         
  C:A307H         LINE#         99
  C:A307H         LINE#         100
  C:A307H         LINE#         103
  C:A309H         LINE#         104
  C:A309H         LINE#         105
  C:A316H         LINE#         106
  C:A31AH         LINE#         108
  C:A31CH         LINE#         109
  C:A31EH         LINE#         110
  C:A321H         LINE#         111
  C:A323H         LINE#         112
  C:A328H         LINE#         113
BL51 BANKED LINKER/LOCATER V6.22.2.0                                                  01/14/2022  09:01:27  PAGE 22


  C:A32AH         LINE#         114
  C:A32CH         LINE#         115
  C:A32FH         LINE#         116
  C:A332H         LINE#         117
  C:A336H         LINE#         119
  C:A338H         LINE#         120
  C:A33AH         LINE#         121
  -------         ENDPROC       _SENDBYTE
  -------         PROC          RCVBYTE
  -------         DO            
  D:0007H         SYMBOL        retc
  D:0006H         SYMBOL        BitCnt
  -------         ENDDO         
  C:A534H         LINE#         124
  C:A534H         LINE#         125
  C:A534H         LINE#         129
  C:A536H         LINE#         130
  C:A538H         LINE#         131
  C:A539H         LINE#         132
  C:A539H         LINE#         133
  C:A53BH         LINE#         134
  C:A53EH         LINE#         135
  C:A540H         LINE#         136
  C:A543H         LINE#         137
  C:A547H         LINE#         138
  C:A54AH         LINE#         139
  C:A54BH         LINE#         140
  C:A54EH         LINE#         141
  C:A553H         LINE#         142
  C:A555H         LINE#         143
  C:A555H         LINE#         144
  -------         ENDPROC       RCVBYTE
  -------         PROC          ACK_I2C
  B:0022H.6       SYMBOL        a
  C:A7BBH         LINE#         146
  C:A7BBH         LINE#         147
  C:A7BBH         LINE#         148
  C:A7BFH         LINE#         149
  C:A7C1H         LINE#         150
  C:A7C4H         LINE#         151
  C:A7C6H         LINE#         152
  -------         ENDPROC       ACK_I2C
  -------         PROC          _DS3231_WRITE_BYTE
  D:0004H         SYMBOL        addr
  D:0005H         SYMBOL        write_data
  C:A3A5H         LINE#         155
  C:A3A7H         LINE#         156
  C:A3A7H         LINE#         157
  C:A3AAH         LINE#         158
  C:A3AFH         LINE#         159
  C:A3B2H         LINE#         160
  C:A3B5H         LINE#         162
  C:A3BAH         LINE#         163
  C:A3BDH         LINE#         164
  C:A3C0H         LINE#         166
  C:A3C5H         LINE#         167
  C:A3C8H         LINE#         168
BL51 BANKED LINKER/LOCATER V6.22.2.0                                                  01/14/2022  09:01:27  PAGE 23


  C:A3CBH         LINE#         170
  C:A3CEH         LINE#         171
  C:A3D1H         LINE#         172
  C:A3D4H         LINE#         173
  C:A3D6H         LINE#         174
  -------         ENDPROC       _DS3231_WRITE_BYTE
  -------         PROC          READ_CURRENT
  -------         DO            
  D:0007H         SYMBOL        read_data
  -------         ENDDO         
  C:A5D2H         LINE#         176
  C:A5D2H         LINE#         177
  C:A5D2H         LINE#         179
  C:A5D5H         LINE#         180
  C:A5DAH         LINE#         181
  C:A5DDH         LINE#         182
  C:A5E0H         LINE#         183
  C:A5E3H         LINE#         184
  C:A5E8H         LINE#         185
  C:A5EBH         LINE#         186
  C:A5EBH         LINE#         187
  -------         ENDPROC       READ_CURRENT
  -------         PROC          L?1055
  -------         ENDPROC       L?1055
  -------         PROC          _READ_RANDOM
  D:0005H         SYMBOL        random_addr
  -------         DO            
  D:0007H         SYMBOL        Tmp
  -------         ENDDO         
  C:A44CH         LINE#         189
  C:A44EH         LINE#         190
  C:A44EH         LINE#         192
  C:A451H         LINE#         193
  C:A456H         LINE#         194
  C:A459H         LINE#         195
  C:A45CH         LINE#         196
  C:A461H         LINE#         197
  C:A464H         LINE#         198
  C:A467H         LINE#         199
  C:A46AH         LINE#         203
  C:A46AH         LINE#         205
  -------         ENDPROC       _READ_RANDOM
  -------         PROC          _MODIFYTIME
  D:0007H         SYMBOL        address
  D:0005H         SYMBOL        num
  -------         DO            
  D:0006H         SYMBOL        temp
  -------         ENDDO         
  C:A758H         LINE#         207
  C:A758H         LINE#         208
  C:A758H         LINE#         209
  C:A758H         LINE#         210
  C:A763H         LINE#         212
  C:A765H         LINE#         213
  C:A768H         LINE#         214
  -------         ENDPROC       _MODIFYTIME
  -------         PROC          DS3231_INITIAL
BL51 BANKED LINKER/LOCATER V6.22.2.0                                                  01/14/2022  09:01:27  PAGE 24


  C:A1DCH         LINE#         280
  C:A1DCH         LINE#         281
  C:A1E1H         LINE#         282
  C:A1EBH         LINE#         283
  C:A1EBH         LINE#         284
  C:A1F2H         LINE#         285
  C:A1F8H         LINE#         286
  C:A1FFH         LINE#         287
  C:A206H         LINE#         288
  C:A20DH         LINE#         289
  C:A214H         LINE#         290
  C:A21BH         LINE#         292
  C:A21BH         LINE#         294
  -------         ENDPROC       DS3231_INITIAL
  -------         PROC          GETALLTIME
  -------         DO            
  D:0004H         SYMBOL        temp
  -------         ENDDO         
  C:9693H         LINE#         298
  C:9693H         LINE#         299
  C:9693H         LINE#         302
  C:969AH         LINE#         303
  C:96A2H         LINE#         304
  C:96A9H         LINE#         306
  C:96B0H         LINE#         307
  C:96B8H         LINE#         308
  C:96BDH         LINE#         310
  C:96C4H         LINE#         311
  C:96C7H         LINE#         312
  C:96C7H         LINE#         313
  C:96D5H         LINE#         314
  C:96DAH         LINE#         315
  C:96DAH         LINE#         316
  C:96DCH         LINE#         317
  C:96E0H         LINE#         318
  C:96E2H         LINE#         320
  C:96E4H         LINE#         321
  C:96EDH         LINE#         322
  C:96F6H         LINE#         325
  C:96F8H         LINE#         327
  C:96F8H         LINE#         328
  C:96FAH         LINE#         329
  C:9704H         LINE#         330
  C:9709H         LINE#         331
  C:9709H         LINE#         333
  C:970EH         LINE#         334
  C:970EH         LINE#         335
  C:970EH         LINE#         337
  C:9713H         LINE#         338
  C:971BH         LINE#         339
  C:9720H         LINE#         341
  C:9727H         LINE#         342
  C:972FH         LINE#         343
  C:9736H         LINE#         345
  -------         ENDPROC       GETALLTIME
  -------         PROC          GETTIME
  -------         DO            
BL51 BANKED LINKER/LOCATER V6.22.2.0                                                  01/14/2022  09:01:27  PAGE 25


  D:0004H         SYMBOL        temp
  -------         ENDDO         
  C:952EH         LINE#         348
  C:952EH         LINE#         349
  C:952EH         LINE#         352
  C:9535H         LINE#         353
  C:953DH         LINE#         354
  C:9544H         LINE#         356
  C:954AH         LINE#         357
  C:954AH         LINE#         358
  C:9551H         LINE#         359
  C:9559H         LINE#         360
  C:955EH         LINE#         362
  C:9564H         LINE#         363
  C:9564H         LINE#         364
  C:956BH         LINE#         365
  C:956EH         LINE#         366
  C:956EH         LINE#         367
  C:957CH         LINE#         368
  C:9581H         LINE#         369
  C:9581H         LINE#         370
  C:9583H         LINE#         371
  C:9587H         LINE#         372
  C:9589H         LINE#         374
  C:958BH         LINE#         375
  C:9594H         LINE#         376
  C:959DH         LINE#         379
  C:959FH         LINE#         381
  C:959FH         LINE#         382
  C:95A7H         LINE#         383
  C:95ACH         LINE#         384
  C:95ACH         LINE#         385
  C:95AFH         LINE#         386
  C:95AFH         LINE#         387
  C:95B4H         LINE#         388
  C:95B4H         LINE#         389
  C:95B4H         LINE#         391
  C:95B9H         LINE#         392
  C:95C1H         LINE#         393
  C:95C6H         LINE#         395
  C:95CDH         LINE#         396
  C:95D5H         LINE#         397
  C:95DCH         LINE#         399
  C:95DFH         LINE#         400
  C:95E1H         LINE#         401
  C:95E1H         LINE#         402
  C:95E1H         LINE#         403
  C:95E1H         LINE#         404
  -------         ENDPROC       GETTIME
  -------         PROC          _DELAY18B20
  D:0006H         SYMBOL        x
  -------         DO            
  D:0005H         SYMBOL        i
  -------         ENDDO         
  C:A6FBH         LINE#         10
  C:A6FBH         LINE#         11
  C:A6FBH         LINE#         13
BL51 BANKED LINKER/LOCATER V6.22.2.0                                                  01/14/2022  09:01:27  PAGE 26


  C:A705H         LINE#         14
  C:A705H         LINE#         15
  C:A707H         LINE#         16
  C:A70DH         LINE#         17
  C:A70DH         LINE#         18
  -------         ENDPROC       _DELAY18B20
  -------         PROC          DS18B20_TEST
  -------         DO            
  D:0004H         SYMBOL        presence
  -------         ENDDO         
  C:A578H         LINE#         21
  C:A578H         LINE#         22
  C:A578H         LINE#         24
  C:A57AH         LINE#         25
  C:A581H         LINE#         26
  C:A583H         LINE#         28
  C:A58AH         LINE#         30
  C:A58FH         LINE#         31
  C:A596H         LINE#         32
  C:A598H         LINE#         33
  -------         ENDPROC       DS18B20_TEST
  -------         PROC          DS18B20_RST
  C:A734H         LINE#         34
  C:A734H         LINE#         35
  C:A734H         LINE#         37
  C:A736H         LINE#         38
  C:A73DH         LINE#         39
  C:A73FH         LINE#         41
  -------         ENDPROC       DS18B20_RST
  -------         PROC          READ_BYTE
  -------         DO            
  D:0003H         SYMBOL        i
  D:0004H         SYMBOL        value
  -------         ENDDO         
  C:A556H         LINE#         49
  C:A556H         LINE#         50
  C:A556H         LINE#         52
  C:A558H         LINE#         53
  C:A55AH         LINE#         54
  C:A55AH         LINE#         56
  C:A55CH         LINE#         57
  C:A560H         LINE#         58
  C:A562H         LINE#         59
  C:A566H         LINE#         61
  C:A569H         LINE#         62
  C:A56CH         LINE#         63
  C:A573H         LINE#         64
  C:A575H         LINE#         65
  C:A577H         LINE#         66
  -------         ENDPROC       READ_BYTE
  -------         PROC          _WRITE_BYTE
  D:0001H         SYMBOL        val
  -------         DO            
  D:0003H         SYMBOL        i
  -------         ENDDO         
  C:A5B7H         LINE#         70
  C:A5B9H         LINE#         71
BL51 BANKED LINKER/LOCATER V6.22.2.0                                                  01/14/2022  09:01:27  PAGE 27


  C:A5B9H         LINE#         73
  C:A5BBH         LINE#         74
  C:A5BBH         LINE#         75
  C:A5BDH         LINE#         76
  C:A5C1H         LINE#         77
  C:A5C8H         LINE#         78
  C:A5CAH         LINE#         79
  C:A5CFH         LINE#         80
  C:A5D1H         LINE#         82
  -------         ENDPROC       _WRITE_BYTE
  -------         PROC          READ18B20
  -------         DO            
  D:0007H         SYMBOL        data_H
  D:0001H         SYMBOL        data_L
  -------         ENDDO         
  C:9E19H         LINE#         96
  C:9E19H         LINE#         97
  C:9E19H         LINE#         101
  C:9E1CH         LINE#         102
  C:9E21H         LINE#         103
  C:9E26H         LINE#         104
  C:9E29H         LINE#         105
  C:9E2EH         LINE#         106
  C:9E33H         LINE#         110
  C:9E38H         LINE#         111
  C:9E3BH         LINE#         118
  C:9E41H         LINE#         119
  C:9E43H         LINE#         120
  C:9E47H         LINE#         121
  C:9E4BH         LINE#         123
  C:9E5AH         LINE#         125
  C:9E5CH         LINE#         127
  C:9E5EH         LINE#         129
  C:9E6BH         LINE#         131
  C:9E75H         LINE#         132
  C:9E75H         LINE#         133
  C:9E81H         LINE#         134
  C:9E8AH         LINE#         135
  -------         ENDPROC       READ18B20
  C:A4EBH         SYMBOL        L?1054
  -------         PROC          L?1053
  -------         ENDPROC       L?1053
  C:A4EBH         SYMBOL        L?1054
  -------         PROC          SHEZHI
  -------         DO            
  D:0006H         SYMBOL        row1
  D:0007H         SYMBOL        row2
  -------         ENDDO         
  C:A4F2H         LINE#         10
  C:A4F2H         LINE#         11
  C:A4F2H         LINE#         14
  C:A4F7H         LINE#         15
  C:A4F9H         LINE#         17
  C:A500H         LINE#         18
  C:A504H         LINE#         19
  C:A50BH         LINE#         20
  C:A50FH         LINE#         21
BL51 BANKED LINKER/LOCATER V6.22.2.0                                                  01/14/2022  09:01:27  PAGE 28


  -------         ENDPROC       SHEZHI
  -------         PROC          SETNIAN_G
  -------         DO            
  D:0005H         SYMBOL        row1
  D:0004H         SYMBOL        row2
  -------         ENDDO         
  C:A5ECH         LINE#         22
  C:A5ECH         LINE#         23
  C:A5ECH         LINE#         26
  C:A5ECH         LINE#         27
  C:A5ECH         LINE#         29
  C:A5EFH         LINE#         30
  C:A5F2H         LINE#         31
  C:A5FBH         LINE#         32
  C:A601H         LINE#         33
  C:A604H         LINE#         40
  -------         ENDPROC       SETNIAN_G
  -------         PROC          SETNIAN_R
  -------         DO            
  D:0006H         SYMBOL        row1
  D:0007H         SYMBOL        row2
  -------         ENDDO         
  C:9E8BH         LINE#         42
  C:9E8BH         LINE#         43
  C:9E8BH         LINE#         46
  C:9E90H         LINE#         47
  C:9E92H         LINE#         49
  C:9E9AH         LINE#         50
  C:9E9FH         LINE#         52
  C:9EA7H         LINE#         53
  C:9EAFH         LINE#         54
  C:9ECEH         LINE#         55
  C:9EEDH         LINE#         56
  C:9EEFH         LINE#         57
  C:9EF1H         LINE#         59
  C:9EF4H         LINE#         60
  C:9EF9H         LINE#         61
  -------         ENDPROC       SETNIAN_R
  -------         PROC          SETYUE_G
  -------         DO            
  D:0005H         SYMBOL        row1
  D:0004H         SYMBOL        row2
  -------         ENDDO         
  C:A499H         LINE#         64
  C:A499H         LINE#         65
  C:A499H         LINE#         68
  C:A499H         LINE#         69
  C:A499H         LINE#         71
  C:A49CH         LINE#         73
  C:A4A3H         LINE#         74
  C:A4A7H         LINE#         76
  C:A4AEH         LINE#         77
  C:A4B2H         LINE#         79
  C:A4BBH         LINE#         80
  C:A4C1H         LINE#         84
  -------         ENDPROC       SETYUE_G
  -------         PROC          SETYUE_R
BL51 BANKED LINKER/LOCATER V6.22.2.0                                                  01/14/2022  09:01:27  PAGE 29


  -------         DO            
  D:0006H         SYMBOL        row1
  D:0007H         SYMBOL        row2
  -------         ENDDO         
  C:987FH         LINE#         87
  C:987FH         LINE#         88
  C:987FH         LINE#         90
  C:9884H         LINE#         91
  C:9886H         LINE#         93
  C:988DH         LINE#         94
  C:9891H         LINE#         97
  C:989CH         LINE#         99
  C:98B8H         LINE#         101
  C:98D7H         LINE#         104
  C:98F6H         LINE#         105
  C:9915H         LINE#         107
  C:9918H         LINE#         108
  C:991DH         LINE#         109
  -------         ENDPROC       SETYUE_R
  -------         PROC          SETRI_G
  -------         DO            
  D:0005H         SYMBOL        row1
  D:0004H         SYMBOL        row2
  -------         ENDDO         
  C:A4C2H         LINE#         113
  C:A4C2H         LINE#         114
  C:A4C2H         LINE#         116
  C:A4C2H         LINE#         117
  C:A4C2H         LINE#         119
  C:A4C5H         LINE#         121
  C:A4CCH         LINE#         122
  C:A4D0H         LINE#         124
  C:A4D7H         LINE#         125
  C:A4DBH         LINE#         127
  C:A4E4H         LINE#         128
  C:A4EAH         LINE#         143
  -------         ENDPROC       SETRI_G
  -------         PROC          SETRI_R
  -------         DO            
  D:0006H         SYMBOL        row1
  D:0007H         SYMBOL        row2
  -------         ENDDO         
  C:991EH         LINE#         146
  C:991EH         LINE#         147
  C:991EH         LINE#         149
  C:9923H         LINE#         150
  C:9925H         LINE#         152
  C:992CH         LINE#         153
  C:9930H         LINE#         156
  C:993BH         LINE#         158
  C:9957H         LINE#         160
  C:9976H         LINE#         163
  C:9995H         LINE#         164
  C:99B4H         LINE#         166
  C:99B7H         LINE#         167
  C:99BCH         LINE#         168
  -------         ENDPROC       SETRI_R
BL51 BANKED LINKER/LOCATER V6.22.2.0                                                  01/14/2022  09:01:27  PAGE 30


  -------         PROC          SETSHI_G
  -------         DO            
  D:0005H         SYMBOL        row1
  D:0004H         SYMBOL        row2
  -------         ENDDO         
  C:A769H         LINE#         171
  C:A769H         LINE#         172
  C:A769H         LINE#         174
  C:A769H         LINE#         175
  C:A769H         LINE#         177
  C:A76CH         LINE#         179
  C:A773H         LINE#         180
  C:A779H         LINE#         200
  -------         ENDPROC       SETSHI_G
  -------         PROC          SETSHI_R
  -------         DO            
  D:0006H         SYMBOL        row1
  D:0007H         SYMBOL        row2
  -------         ENDDO         
  C:8E3AH         LINE#         203
  C:8E3AH         LINE#         204
  C:8E3AH         LINE#         206
  C:8E3FH         LINE#         207
  C:8E41H         LINE#         209
  C:8E48H         LINE#         210
  C:8E4CH         LINE#         212
  C:8E52H         LINE#         213
  C:8E6DH         LINE#         215
  C:8E8CH         LINE#         216
  C:8E94H         LINE#         217
  C:8EB3H         LINE#         218
  C:8ED2H         LINE#         219
  C:8ED5H         LINE#         220
  C:8EF4H         LINE#         221
  C:8F13H         LINE#         223
  C:8F16H         LINE#         224
  C:8F1BH         LINE#         226
  C:8F1EH         LINE#         227
  C:8F26H         LINE#         228
  -------         ENDPROC       SETSHI_R
  -------         PROC          SETFEN_G
  -------         DO            
  D:0005H         SYMBOL        row1
  D:0004H         SYMBOL        row2
  -------         ENDDO         
  C:A77AH         LINE#         231
  C:A77AH         LINE#         232
  C:A77AH         LINE#         234
  C:A77AH         LINE#         235
  C:A77AH         LINE#         237
  C:A77DH         LINE#         239
  C:A784H         LINE#         240
  C:A78AH         LINE#         242
  -------         ENDPROC       SETFEN_G
  -------         PROC          SETFEN_R
  -------         DO            
  D:0006H         SYMBOL        row1
BL51 BANKED LINKER/LOCATER V6.22.2.0                                                  01/14/2022  09:01:27  PAGE 31


  D:0007H         SYMBOL        row2
  -------         ENDDO         
  C:8F27H         LINE#         245
  C:8F27H         LINE#         246
  C:8F27H         LINE#         248
  C:8F2CH         LINE#         249
  C:8F2EH         LINE#         251
  C:8F35H         LINE#         252
  C:8F39H         LINE#         254
  C:8F3FH         LINE#         255
  C:8F5AH         LINE#         257
  C:8F79H         LINE#         258
  C:8F81H         LINE#         259
  C:8FA0H         LINE#         260
  C:8FBFH         LINE#         261
  C:8FC2H         LINE#         262
  C:8FE1H         LINE#         263
  C:9000H         LINE#         265
  C:9003H         LINE#         266
  C:900BH         LINE#         268
  C:900EH         LINE#         269
  C:9013H         LINE#         270
  -------         ENDPROC       SETFEN_R
  -------         PROC          SETMIAO_G
  -------         DO            
  D:0005H         SYMBOL        row1
  D:0004H         SYMBOL        row2
  -------         ENDDO         
  C:A78BH         LINE#         273
  C:A78BH         LINE#         274
  C:A78BH         LINE#         276
  C:A78BH         LINE#         277
  C:A78BH         LINE#         279
  C:A78EH         LINE#         281
  C:A795H         LINE#         282
  C:A79BH         LINE#         283
  -------         ENDPROC       SETMIAO_G
  -------         PROC          SETMIAO_R
  -------         DO            
  D:0006H         SYMBOL        row1
  D:0007H         SYMBOL        row2
  -------         ENDDO         
  C:9014H         LINE#         286
  C:9014H         LINE#         287
  C:9014H         LINE#         289
  C:9019H         LINE#         290
  C:901BH         LINE#         292
  C:9022H         LINE#         293
  C:9026H         LINE#         295
  C:902CH         LINE#         296
  C:9047H         LINE#         298
  C:9066H         LINE#         299
  C:906EH         LINE#         300
  C:908DH         LINE#         301
  C:90ACH         LINE#         302
  C:90AFH         LINE#         303
  C:90CEH         LINE#         304
BL51 BANKED LINKER/LOCATER V6.22.2.0                                                  01/14/2022  09:01:27  PAGE 32


  C:90EDH         LINE#         306
  C:90F0H         LINE#         307
  C:90F8H         LINE#         309
  C:90FBH         LINE#         310
  C:9100H         LINE#         311
  -------         ENDPROC       SETMIAO_R
  -------         PROC          SETLIANGDU_G
  -------         DO            
  D:0005H         SYMBOL        row1
  D:0004H         SYMBOL        row2
  -------         ENDDO         
  C:9C03H         LINE#         314
  C:9C03H         LINE#         315
  C:9C03H         LINE#         318
  C:9C03H         LINE#         319
  C:9C03H         LINE#         321
  C:9C06H         LINE#         322
  C:9C0DH         LINE#         323
  C:9C11H         LINE#         324
  C:9C1AH         LINE#         325
  C:9C20H         LINE#         327
  C:9C43H         LINE#         328
  C:9C69H         LINE#         329
  C:9C8BH         LINE#         330
  -------         ENDPROC       SETLIANGDU_G
  -------         PROC          SETLIANGDU_R
  -------         DO            
  D:0006H         SYMBOL        row1
  D:0007H         SYMBOL        row2
  -------         ENDDO         
  C:9A5AH         LINE#         332
  C:9A5AH         LINE#         333
  C:9A5AH         LINE#         335
  C:9A5FH         LINE#         336
  C:9A61H         LINE#         339
  C:9A68H         LINE#         340
  C:9A6CH         LINE#         341
  C:9A73H         LINE#         342
  C:9A77H         LINE#         344
  C:9AADH         LINE#         345
  C:9AE2H         LINE#         347
  C:9AE5H         LINE#         348
  C:9AEAH         LINE#         349
  -------         ENDPROC       SETLIANGDU_R
  -------         PROC          SETMINLIANGDU_G
  -------         DO            
  D:0005H         SYMBOL        row1
  D:0004H         SYMBOL        row2
  -------         ENDDO         
  C:A33DH         LINE#         352
  C:A33DH         LINE#         353
  C:A33DH         LINE#         355
  C:A33DH         LINE#         356
  C:A33DH         LINE#         358
  C:A340H         LINE#         359
  C:A347H         LINE#         360
  C:A34BH         LINE#         361
BL51 BANKED LINKER/LOCATER V6.22.2.0                                                  01/14/2022  09:01:27  PAGE 33


  C:A352H         LINE#         362
  C:A356H         LINE#         364
  C:A35DH         LINE#         365
  C:A361H         LINE#         366
  C:A36AH         LINE#         367
  C:A370H         LINE#         368
  -------         ENDPROC       SETMINLIANGDU_G
  -------         PROC          SETMINLIANGDU_R
  -------         DO            
  D:0006H         SYMBOL        row1
  D:0007H         SYMBOL        row2
  -------         ENDDO         
  C:9EFAH         LINE#         370
  C:9EFAH         LINE#         371
  C:9EFAH         LINE#         373
  C:9EFFH         LINE#         374
  C:9F01H         LINE#         376
  C:9F08H         LINE#         377
  C:9F0CH         LINE#         378
  C:9F13H         LINE#         379
  C:9F17H         LINE#         381
  C:9F1EH         LINE#         382
  C:9F22H         LINE#         383
  C:9F29H         LINE#         384
  C:9F2DH         LINE#         386
  C:9F5CH         LINE#         388
  C:9F5FH         LINE#         389
  C:9F62H         LINE#         390
  -------         ENDPROC       SETMINLIANGDU_R
  -------         PROC          SETLIANGDUG_G
  -------         DO            
  D:0005H         SYMBOL        row1
  D:0004H         SYMBOL        row2
  -------         ENDDO         
  C:A371H         LINE#         394
  C:A371H         LINE#         395
  C:A371H         LINE#         397
  C:A371H         LINE#         398
  C:A371H         LINE#         400
  C:A374H         LINE#         409
  C:A37BH         LINE#         410
  C:A37FH         LINE#         411
  C:A386H         LINE#         412
  C:A38AH         LINE#         414
  C:A391H         LINE#         415
  C:A395H         LINE#         416
  C:A39EH         LINE#         417
  C:A3A4H         LINE#         420
  -------         ENDPROC       SETLIANGDUG_G
  -------         PROC          SETLIANGDUG_R
  -------         DO            
  D:0006H         SYMBOL        row1
  D:0007H         SYMBOL        row2
  -------         ENDDO         
  C:9FC6H         LINE#         423
  C:9FC6H         LINE#         424
  C:9FC6H         LINE#         426
BL51 BANKED LINKER/LOCATER V6.22.2.0                                                  01/14/2022  09:01:27  PAGE 34


  C:9FCBH         LINE#         427
  C:9FCDH         LINE#         437
  C:9FD4H         LINE#         438
  C:9FD8H         LINE#         439
  C:9FDFH         LINE#         440
  C:9FE3H         LINE#         442
  C:9FEAH         LINE#         443
  C:9FEEH         LINE#         444
  C:9FF5H         LINE#         445
  C:9FF9H         LINE#         447
  C:9FFEH         LINE#         448
  C:9FFEH         LINE#         449
  C:A002H         LINE#         450
  C:A002H         LINE#         451
  C:A002H         LINE#         452
  C:A002H         LINE#         453
  C:A004H         LINE#         455
  C:A004H         LINE#         456
  C:A00BH         LINE#         457
  C:A00FH         LINE#         458
  C:A016H         LINE#         459
  C:A01AH         LINE#         460
  C:A01AH         LINE#         462
  C:A01DH         LINE#         463
  C:A026H         LINE#         464
  -------         ENDPROC       SETLIANGDUG_R
  -------         PROC          NTCBUCHANG_G
  -------         DO            
  D:0006H         SYMBOL        row1
  D:0007H         SYMBOL        row2
  -------         ENDDO         
  C:A25BH         LINE#         466
  C:A25BH         LINE#         467
  C:A25BH         LINE#         469
  C:A260H         LINE#         470
  C:A262H         LINE#         472
  C:A26AH         LINE#         473
  C:A272H         LINE#         474
  C:A27AH         LINE#         475
  C:A281H         LINE#         476
  C:A285H         LINE#         477
  C:A28CH         LINE#         478
  C:A290H         LINE#         480
  C:A298H         LINE#         481
  -------         ENDPROC       NTCBUCHANG_G
  -------         PROC          NTCBUCHANG_R
  C:99BDH         LINE#         483
  C:99BDH         LINE#         484
  C:99BDH         LINE#         486
  C:99E1H         LINE#         487
  C:9A0EH         LINE#         488
  C:9A15H         LINE#         493
  C:9A18H         LINE#         494
  C:9A18H         LINE#         495
  C:9A21H         LINE#         496
  C:9A21H         LINE#         497
  C:9A29H         LINE#         498
BL51 BANKED LINKER/LOCATER V6.22.2.0                                                  01/14/2022  09:01:27  PAGE 35


  C:9A37H         LINE#         499
  C:9A39H         LINE#         501
  C:9A59H         LINE#         506
  C:9A59H         LINE#         507
  -------         ENDPROC       NTCBUCHANG_R
  -------         PROC          YAOKONG_G
  -------         DO            
  D:0005H         SYMBOL        row1
  D:0004H         SYMBOL        row2
  -------         ENDDO         
  C:A599H         LINE#         510
  C:A599H         LINE#         511
  C:A599H         LINE#         513
  C:A599H         LINE#         514
  C:A599H         LINE#         516
  C:A59CH         LINE#         517
  C:A5A3H         LINE#         518
  C:A5A7H         LINE#         519
  C:A5B0H         LINE#         520
  C:A5B6H         LINE#         522
  -------         ENDPROC       YAOKONG_G
  -------         PROC          YAOKONG_R
  -------         DO            
  D:0006H         SYMBOL        row1
  D:0007H         SYMBOL        row2
  -------         ENDDO         
  C:9397H         LINE#         525
  C:9397H         LINE#         526
  C:9397H         LINE#         528
  C:939CH         LINE#         529
  C:939EH         LINE#         531
  C:93A5H         LINE#         532
  C:93A9H         LINE#         533
  C:93B0H         LINE#         534
  C:93B4H         LINE#         537
  C:93B7H         LINE#         538
  C:93B7H         LINE#         539
  C:93BBH         LINE#         540
  C:93BBH         LINE#         541
  C:93BEH         LINE#         542
  C:93BEH         LINE#         543
  C:93C0H         LINE#         545
  C:93C0H         LINE#         546
  C:93C6H         LINE#         547
  C:93CAH         LINE#         548
  C:93CAH         LINE#         549
  C:93CAH         LINE#         551
  C:93D4H         LINE#         552
  C:93D4H         LINE#         553
  C:93D9H         LINE#         555
  C:93FBH         LINE#         556
  C:941DH         LINE#         557
  C:943FH         LINE#         558
  C:9463H         LINE#         559
  C:9463H         LINE#         561
  -------         ENDPROC       YAOKONG_R
  -------         PROC          XUEXI_G
BL51 BANKED LINKER/LOCATER V6.22.2.0                                                  01/14/2022  09:01:27  PAGE 36


  -------         DO            
  X:0032H         SYMBOL        row1
  X:0033H         SYMBOL        row2
  X:0034H         SYMBOL        a1
  X:0035H         SYMBOL        a2
  X:0036H         SYMBOL        a3
  X:0037H         SYMBOL        a4
  -------         ENDDO         
  C:7E51H         LINE#         564
  C:7E51H         LINE#         565
  C:7E51H         LINE#         567
  C:7E59H         LINE#         568
  C:7E5CH         LINE#         570
  C:7E6DH         LINE#         571
  C:7E6DH         LINE#         572
  C:7E6DH         LINE#         573
  C:7E73H         LINE#         574
  C:7E77H         LINE#         575
  C:7E7BH         LINE#         576
  C:7E7FH         LINE#         577
  C:7E81H         LINE#         579
  C:7E81H         LINE#         580
  C:7E87H         LINE#         581
  C:7E8AH         LINE#         582
  C:7E8EH         LINE#         583
  C:7E92H         LINE#         584
  C:7E94H         LINE#         586
  C:7E94H         LINE#         587
  C:7E9AH         LINE#         588
  C:7E9DH         LINE#         589
  C:7EA0H         LINE#         590
  C:7EA4H         LINE#         591
  C:7EA6H         LINE#         593
  C:7EA6H         LINE#         594
  C:7EACH         LINE#         595
  C:7EB0H         LINE#         596
  C:7EB4H         LINE#         597
  C:7EB8H         LINE#         598
  C:7EB8H         LINE#         600
  C:7EB8H         LINE#         601
  C:7EB8H         LINE#         602
  C:7EB8H         LINE#         604
  C:7EBEH         LINE#         605
  C:7EBEH         LINE#         607
  C:7EDFH         LINE#         608
  C:7F00H         LINE#         609
  C:7F21H         LINE#         611
  C:7F2BH         LINE#         612
  C:7F2BH         LINE#         613
  C:7F33H         LINE#         615
  C:7F61H         LINE#         616
  C:7F83H         LINE#         617
  C:7FB5H         LINE#         618
  C:7FD7H         LINE#         619
  C:7FD7H         LINE#         620
  C:7FD8H         LINE#         622
  C:7FD8H         LINE#         623
BL51 BANKED LINKER/LOCATER V6.22.2.0                                                  01/14/2022  09:01:27  PAGE 37


  C:7FE3H         LINE#         624
  C:7FEEH         LINE#         625
  C:7FF5H         LINE#         626
  C:7FF9H         LINE#         627
  C:801AH         LINE#         628
  C:803BH         LINE#         629
  C:805CH         LINE#         630
  C:805CH         LINE#         632
  -------         ENDPROC       XUEXI_G
  -------         PROC          XUEXI_R
  -------         DO            
  D:0006H         SYMBOL        row1
  D:0007H         SYMBOL        row2
  X:0032H         SYMBOL        a1
  X:0033H         SYMBOL        a2
  D:0001H         SYMBOL        a3
  X:0034H         SYMBOL        a4
  -------         ENDDO         
  C:8369H         LINE#         635
  C:8369H         LINE#         636
  C:8369H         LINE#         638
  C:836EH         LINE#         639
  C:8370H         LINE#         641
  C:8381H         LINE#         642
  C:8381H         LINE#         643
  C:8381H         LINE#         644
  C:8387H         LINE#         645
  C:838BH         LINE#         646
  C:838DH         LINE#         647
  C:8391H         LINE#         648
  C:8393H         LINE#         650
  C:8393H         LINE#         651
  C:8399H         LINE#         652
  C:839CH         LINE#         653
  C:839EH         LINE#         654
  C:83A2H         LINE#         655
  C:83A4H         LINE#         657
  C:83A4H         LINE#         658
  C:83AAH         LINE#         659
  C:83ADH         LINE#         660
  C:83AFH         LINE#         661
  C:83B3H         LINE#         662
  C:83B5H         LINE#         664
  C:83B5H         LINE#         665
  C:83BBH         LINE#         666
  C:83BFH         LINE#         667
  C:83C1H         LINE#         668
  C:83C5H         LINE#         669
  C:83C5H         LINE#         671
  C:83C5H         LINE#         672
  C:83C5H         LINE#         673
  C:83C5H         LINE#         675
  C:83D5H         LINE#         676
  C:83D5H         LINE#         678
  C:83ECH         LINE#         679
  C:840DH         LINE#         680
  C:842BH         LINE#         681
BL51 BANKED LINKER/LOCATER V6.22.2.0                                                  01/14/2022  09:01:27  PAGE 38


  C:8432H         LINE#         682
  C:8436H         LINE#         683
  C:843DH         LINE#         684
  C:8441H         LINE#         686
  C:8448H         LINE#         687
  C:844CH         LINE#         688
  C:8453H         LINE#         689
  C:8457H         LINE#         691
  C:8458H         LINE#         693
  C:8458H         LINE#         694
  C:846FH         LINE#         695
  C:8490H         LINE#         696
  C:84AEH         LINE#         698
  C:84B5H         LINE#         699
  C:84B9H         LINE#         700
  C:84C0H         LINE#         701
  C:84C4H         LINE#         702
  C:84CBH         LINE#         703
  C:84CFH         LINE#         704
  C:84D6H         LINE#         705
  C:84DAH         LINE#         706
  C:84DAH         LINE#         707
  -------         ENDPROC       XUEXI_R
  -------         PROC          READ_EEP
  -------         DO            
  D:0007H         SYMBOL        i
  -------         ENDDO         
  C:A510H         LINE#         3
  C:A510H         LINE#         4
  C:A510H         LINE#         6
  C:A513H         LINE#         7
  C:A516H         LINE#         8
  C:A519H         LINE#         9
  C:A51BH         LINE#         10
  C:A51CH         LINE#         11
  C:A51CH         LINE#         12
  C:A51EH         LINE#         13
  C:A521H         LINE#         14
  C:A524H         LINE#         15
  C:A525H         LINE#         16
  C:A52BH         LINE#         17
  C:A530H         LINE#         18
  C:A533H         LINE#         19
  -------         ENDPROC       READ_EEP
  -------         PROC          WRITE_EEP
  -------         DO            
  D:0007H         SYMBOL        i
  -------         ENDDO         
  C:A3D7H         LINE#         22
  C:A3D7H         LINE#         23
  C:A3D7H         LINE#         25
  C:A3DAH         LINE#         26
  C:A3DDH         LINE#         27
  C:A3E0H         LINE#         28
  C:A3E2H         LINE#         29
  C:A3E5H         LINE#         30
  C:A3E8H         LINE#         31
BL51 BANKED LINKER/LOCATER V6.22.2.0                                                  01/14/2022  09:01:27  PAGE 39


  C:A3E9H         LINE#         33
  C:A3ECH         LINE#         34
  C:A3EFH         LINE#         35
  C:A3F0H         LINE#         36
  C:A3F0H         LINE#         37
  C:A3F2H         LINE#         38
  C:A3F9H         LINE#         39
  C:A3FCH         LINE#         40
  C:A3FFH         LINE#         41
  C:A400H         LINE#         42
  C:A405H         LINE#         44
  C:A408H         LINE#         45
  -------         ENDPROC       WRITE_EEP
  -------         PROC          GONGGONGDAIMA
  C:A70EH         LINE#         50
  C:A70EH         LINE#         51
  C:A70EH         LINE#         52
  C:A711H         LINE#         53
  C:A714H         LINE#         54
  C:A715H         LINE#         55
  C:A718H         LINE#         56
  C:A71AH         LINE#         57
  C:A71CH         LINE#         58
  C:A71EH         LINE#         59
  C:A720H         LINE#         60
  -------         ENDPROC       GONGGONGDAIMA
  -------         PROC          _BYTE_READ
  D:0004H         SYMBOL        add
  C:A605H         LINE#         63
  C:A609H         LINE#         64
  C:A609H         LINE#         65
  C:A60CH         LINE#         66
  C:A60FH         LINE#         67
  C:A612H         LINE#         68
  C:A615H         LINE#         69
  C:A618H         LINE#         70
  C:A61BH         LINE#         71
  C:A61DH         LINE#         72
  -------         ENDPROC       _BYTE_READ
  -------         PROC          _BYTE_PROGRAM
  D:0002H         SYMBOL        add
  D:0005H         SYMBOL        dat
  C:A67EH         LINE#         75
  C:A682H         LINE#         76
  C:A682H         LINE#         77
  C:A685H         LINE#         78
  C:A688H         LINE#         79
  C:A68BH         LINE#         80
  C:A68EH         LINE#         81
  C:A692H         LINE#         82
  -------         ENDPROC       _BYTE_PROGRAM
  -------         PROC          _SECTOR_ERASE
  D:0004H         SYMBOL        add
  C:A721H         LINE#         86
  C:A725H         LINE#         87
  C:A725H         LINE#         88
  C:A728H         LINE#         89
BL51 BANKED LINKER/LOCATER V6.22.2.0                                                  01/14/2022  09:01:27  PAGE 40


  C:A72BH         LINE#         90
  C:A72EH         LINE#         91
  C:A731H         LINE#         92
  -------         ENDPROC       _SECTOR_ERASE
  -------         PROC          WRITE_CANSHI
  C:A027H         LINE#         95
  C:A027H         LINE#         96
  C:A027H         LINE#         97
  C:A02EH         LINE#         98
  C:A033H         LINE#         99
  C:A03CH         LINE#         100
  C:A046H         LINE#         101
  C:A04FH         LINE#         102
  C:A057H         LINE#         103
  C:A060H         LINE#         104
  C:A069H         LINE#         105
  C:A073H         LINE#         106
  C:A07CH         LINE#         108
  C:A086H         LINE#         111
  -------         ENDPROC       WRITE_CANSHI
  -------         PROC          _DELAY
  D:0007H         SYMBOL        t
  -------         DO            
  D:0006H         SYMBOL        i
  D:0005H         SYMBOL        j
  -------         ENDDO         
  C:A746H         LINE#         226
  C:A746H         LINE#         227
  C:A746H         LINE#         230
  C:A74DH         LINE#         232
  C:A757H         LINE#         233
  -------         ENDPROC       _DELAY
  C:A7ACH         SYMBOL        L?1057
  -------         PROC          L?1056
  -------         ENDPROC       L?1056
  C:A7ACH         SYMBOL        L?1057
  -------         PROC          _DELAYUS
  D:0006H         SYMBOL        x
  C:A7B0H         LINE#         235
  C:A7B0H         LINE#         236
  C:A7B0H         LINE#         237
  C:A7BAH         LINE#         238
  -------         ENDPROC       _DELAYUS
  -------         PROC          SHOWLOGO
  -------         DO            
  D:0007H         SYMBOL        i
  D:0006H         SYMBOL        j
  X:0032H         SYMBOL        x
  -------         ENDDO         
  C:7A2EH         LINE#         241
  C:7A2EH         LINE#         242
  C:7A2EH         LINE#         244
  C:7A38H         LINE#         247
  C:7A49H         LINE#         248
  C:7A49H         LINE#         249
  C:7A4CH         LINE#         251
  C:7A56H         LINE#         252
BL51 BANKED LINKER/LOCATER V6.22.2.0                                                  01/14/2022  09:01:27  PAGE 41


  C:7A56H         LINE#         280
  C:7A6AH         LINE#         281
  C:7A7EH         LINE#         282
  C:7A92H         LINE#         283
  C:7AA6H         LINE#         284
  C:7ABAH         LINE#         285
  C:7ACEH         LINE#         286
  C:7AE6H         LINE#         287
  C:7AFEH         LINE#         289
  C:7B14H         LINE#         290
  C:7B2AH         LINE#         291
  C:7B3EH         LINE#         292
  C:7B52H         LINE#         293
  C:7B68H         LINE#         294
  C:7B7EH         LINE#         295
  C:7B94H         LINE#         296
  C:7BAAH         LINE#         300
  C:7BACH         LINE#         301
  C:7BACH         LINE#         302
  C:7BAEH         LINE#         303
  C:7BAEH         LINE#         305
  C:7BBAH         LINE#         306
  C:7BBCH         LINE#         307
  C:7BC8H         LINE#         308
  C:7BCAH         LINE#         309
  C:7BD6H         LINE#         310
  C:7BD8H         LINE#         311
  C:7BE4H         LINE#         312
  C:7BE6H         LINE#         313
  C:7BF2H         LINE#         314
  C:7BF4H         LINE#         315
  C:7C01H         LINE#         316
  C:7C03H         LINE#         317
  C:7C05H         LINE#         318
  C:7C09H         LINE#         319
  C:7C0BH         LINE#         337
  C:7C10H         LINE#         338
  C:7C16H         LINE#         341
  C:7C1BH         LINE#         342
  C:7C1DH         LINE#         343
  C:7C21H         LINE#         344
  C:7C23H         LINE#         345
  C:7C25H         LINE#         346
  C:7C2AH         LINE#         347
  C:7C36H         LINE#         348
  C:7C38H         LINE#         349
  C:7C3AH         LINE#         350
  C:7C3FH         LINE#         351
  C:7C3FH         LINE#         352
  -------         ENDPROC       SHOWLOGO
  -------         PROC          MODE0123_RQ_G
  -------         DO            
  X:0032H         SYMBOL        row1
  D:0007H         SYMBOL        row2
  -------         ENDDO         
  C:73D3H         LINE#         355
  C:73D3H         LINE#         356
BL51 BANKED LINKER/LOCATER V6.22.2.0                                                  01/14/2022  09:01:27  PAGE 42


  C:73D3H         LINE#         359
  C:73DBH         LINE#         360
  C:73E0H         LINE#         362
  C:73EAH         LINE#         363
  C:73EAH         LINE#         364
  C:7405H         LINE#         365
  C:742FH         LINE#         366
  C:745AH         LINE#         367
  C:747AH         LINE#         368
  C:749EH         LINE#         369
  C:74C0H         LINE#         370
  C:74E5H         LINE#         371
  C:7505H         LINE#         373
  C:750EH         LINE#         374
  C:750EH         LINE#         375
  C:7511H         LINE#         376
  C:7514H         LINE#         377
  C:7517H         LINE#         378
  C:7517H         LINE#         379
  C:7518H         LINE#         381
  C:7518H         LINE#         383
  C:7537H         LINE#         384
  C:7556H         LINE#         385
  C:755DH         LINE#         386
  C:757CH         LINE#         387
  C:759EH         LINE#         389
  C:75CBH         LINE#         390
  C:75F2H         LINE#         391
  C:75F9H         LINE#         404
  C:75F9H         LINE#         405
  -------         ENDPROC       MODE0123_RQ_G
  -------         PROC          MODE0123_RQ_R
  -------         DO            
  X:0032H         SYMBOL        row1
  D:0007H         SYMBOL        row2
  -------         ENDDO         
  C:9D98H         LINE#         408
  C:9D98H         LINE#         409
  C:9D98H         LINE#         412
  C:9DA0H         LINE#         413
  C:9DA5H         LINE#         415
  C:9DACH         LINE#         416
  C:9DCDH         LINE#         418
  C:9DCDH         LINE#         419
  C:9DF1H         LINE#         420
  C:9E18H         LINE#         422
  C:9E18H         LINE#         423
  -------         ENDPROC       MODE0123_RQ_R
  -------         PROC          MODE0_SJ_G
  -------         DO            
  D:0054H         SYMBOL        row1
  D:0055H         SYMBOL        row2
  -------         ENDDO         
  C:A21CH         LINE#         425
  C:A21CH         LINE#         426
  C:A21CH         LINE#         429
  C:A222H         LINE#         430
BL51 BANKED LINKER/LOCATER V6.22.2.0                                                  01/14/2022  09:01:27  PAGE 43


  C:A228H         LINE#         432
  C:A22FH         LINE#         433
  C:A22FH         LINE#         434
  C:A232H         LINE#         435
  C:A234H         LINE#         437
  C:A234H         LINE#         438
  C:A23CH         LINE#         439
  C:A244H         LINE#         440
  C:A244H         LINE#         441
  C:A245H         LINE#         443
  C:A245H         LINE#         444
  C:A248H         LINE#         445
  C:A24AH         LINE#         447
  C:A24AH         LINE#         448
  C:A252H         LINE#         449
  C:A25AH         LINE#         450
  C:A25AH         LINE#         451
  C:A25AH         LINE#         452
  -------         ENDPROC       MODE0_SJ_G
  -------         PROC          MODE0_SJ_RGB
  -------         DO            
  D:0007H         SYMBOL        row1
  D:0006H         SYMBOL        row2
  D:0005H         SYMBOL        row3
  -------         ENDDO         
  C:002EH         LINE#         525
  C:002EH         LINE#         526
  C:002EH         LINE#         529
  C:0055H         LINE#         530
  C:0055H         LINE#         531
  C:0055H         LINE#         532
  C:0055H         LINE#         533
  C:005FH         LINE#         534
  C:005FH         LINE#         535
  C:0067H         LINE#         536
  C:006EH         LINE#         537
  C:0070H         LINE#         540
  C:0077H         LINE#         541
  C:0077H         LINE#         542
  C:0079H         LINE#         543
  C:009CH         LINE#         544
  C:009EH         LINE#         546
  C:009EH         LINE#         547
  C:00BBH         LINE#         548
  C:00FDH         LINE#         549
  C:00FDH         LINE#         551
  C:0144H         LINE#         552
  C:016AH         LINE#         553
  C:01B9H         LINE#         554
  C:01E2H         LINE#         555
  C:0207H         LINE#         556
  C:0231H         LINE#         559
  C:0232H         LINE#         561
  C:0232H         LINE#         562
  C:023AH         LINE#         563
  C:0241H         LINE#         564
  C:0243H         LINE#         566
BL51 BANKED LINKER/LOCATER V6.22.2.0                                                  01/14/2022  09:01:27  PAGE 44


  C:024AH         LINE#         567
  C:024AH         LINE#         568
  C:024CH         LINE#         569
  C:026FH         LINE#         570
  C:0271H         LINE#         572
  C:0271H         LINE#         573
  C:028EH         LINE#         574
  C:02D0H         LINE#         575
  C:02D0H         LINE#         577
  C:0317H         LINE#         578
  C:033DH         LINE#         579
  C:038CH         LINE#         580
  C:03B5H         LINE#         581
  C:03DAH         LINE#         582
  C:0404H         LINE#         584
  C:040AH         LINE#         585
  C:0411H         LINE#         588
  C:0411H         LINE#         590
  C:0412H         LINE#         591
  C:0412H         LINE#         593
  C:0412H         LINE#         594
  C:0412H         LINE#         595
  C:041CH         LINE#         596
  C:041CH         LINE#         597
  C:0424H         LINE#         598
  C:042BH         LINE#         599
  C:042DH         LINE#         602
  C:0434H         LINE#         603
  C:0434H         LINE#         604
  C:0436H         LINE#         605
  C:0459H         LINE#         606
  C:045BH         LINE#         608
  C:045BH         LINE#         609
  C:0478H         LINE#         610
  C:04BAH         LINE#         611
  C:04BAH         LINE#         613
  C:0501H         LINE#         614
  C:0527H         LINE#         615
  C:0576H         LINE#         616
  C:059FH         LINE#         617
  C:05C4H         LINE#         618
  C:05EEH         LINE#         620
  C:05EFH         LINE#         622
  C:05EFH         LINE#         623
  C:05F7H         LINE#         624
  C:05FEH         LINE#         625
  C:0600H         LINE#         627
  C:0607H         LINE#         628
  C:0607H         LINE#         629
  C:0609H         LINE#         630
  C:062CH         LINE#         631
  C:062EH         LINE#         633
  C:062EH         LINE#         634
  C:064BH         LINE#         635
  C:068DH         LINE#         636
  C:068DH         LINE#         638
  C:06D4H         LINE#         639
BL51 BANKED LINKER/LOCATER V6.22.2.0                                                  01/14/2022  09:01:27  PAGE 45


  C:06FAH         LINE#         640
  C:0749H         LINE#         641
  C:0772H         LINE#         642
  C:0797H         LINE#         643
  C:07C1H         LINE#         645
  C:07C7H         LINE#         646
  C:07CEH         LINE#         648
  C:07CEH         LINE#         650
  C:07CFH         LINE#         652
  C:07CFH         LINE#         654
  C:07CFH         LINE#         655
  C:07CFH         LINE#         656
  C:07D9H         LINE#         657
  C:07D9H         LINE#         658
  C:07E1H         LINE#         659
  C:07E8H         LINE#         660
  C:07EAH         LINE#         663
  C:07F1H         LINE#         664
  C:07F1H         LINE#         665
  C:07F3H         LINE#         666
  C:0816H         LINE#         667
  C:0818H         LINE#         669
  C:0818H         LINE#         670
  C:0835H         LINE#         671
  C:0877H         LINE#         672
  C:0877H         LINE#         674
  C:08BEH         LINE#         675
  C:08E4H         LINE#         676
  C:0933H         LINE#         677
  C:095CH         LINE#         678
  C:0981H         LINE#         679
  C:09ABH         LINE#         682
  C:09ACH         LINE#         684
  C:09ACH         LINE#         685
  C:09B4H         LINE#         686
  C:09BBH         LINE#         687
  C:09BDH         LINE#         689
  C:09C4H         LINE#         690
  C:09C4H         LINE#         691
  C:09C6H         LINE#         692
  C:09E9H         LINE#         693
  C:09EBH         LINE#         695
  C:09EBH         LINE#         696
  C:0A08H         LINE#         697
  C:0A4AH         LINE#         698
  C:0A4AH         LINE#         700
  C:0A91H         LINE#         701
  C:0AB7H         LINE#         702
  C:0B06H         LINE#         703
  C:0B2FH         LINE#         704
  C:0B54H         LINE#         705
  C:0B7EH         LINE#         707
  C:0B84H         LINE#         708
  C:0B8BH         LINE#         711
  C:0B8BH         LINE#         713
  C:0B8CH         LINE#         715
  C:0B8CH         LINE#         717
BL51 BANKED LINKER/LOCATER V6.22.2.0                                                  01/14/2022  09:01:27  PAGE 46


  C:0B8CH         LINE#         718
  C:0B8CH         LINE#         719
  C:0B96H         LINE#         720
  C:0B96H         LINE#         721
  C:0B9EH         LINE#         722
  C:0BA5H         LINE#         723
  C:0BA7H         LINE#         726
  C:0BAEH         LINE#         727
  C:0BAEH         LINE#         728
  C:0BB2H         LINE#         729
  C:0BD3H         LINE#         730
  C:0BD5H         LINE#         732
  C:0BD5H         LINE#         733
  C:0BF4H         LINE#         734
  C:0C38H         LINE#         735
  C:0C38H         LINE#         737
  C:0C81H         LINE#         738
  C:0CA9H         LINE#         739
  C:0CFAH         LINE#         740
  C:0D25H         LINE#         741
  C:0D4CH         LINE#         742
  C:0D74H         LINE#         745
  C:0D77H         LINE#         747
  C:0D77H         LINE#         748
  C:0D7FH         LINE#         749
  C:0D86H         LINE#         750
  C:0D88H         LINE#         752
  C:0D8FH         LINE#         753
  C:0D8FH         LINE#         754
  C:0D93H         LINE#         755
  C:0DB4H         LINE#         756
  C:0DB6H         LINE#         758
  C:0DB6H         LINE#         759
  C:0DD5H         LINE#         760
  C:0E19H         LINE#         761
  C:0E19H         LINE#         763
  C:0E62H         LINE#         764
  C:0E8AH         LINE#         765
  C:0EDBH         LINE#         766
  C:0F06H         LINE#         767
  C:0F2DH         LINE#         768
  C:0F59H         LINE#         770
  C:0F5FH         LINE#         771
  C:0F5FH         LINE#         772
  C:0F66H         LINE#         773
  C:0F68H         LINE#         774
  C:0F68H         LINE#         776
  C:0F68H         LINE#         778
  C:0F69H         LINE#         780
  C:0F69H         LINE#         782
  C:0F69H         LINE#         783
  C:0F69H         LINE#         784
  C:0F73H         LINE#         785
  C:0F73H         LINE#         786
  C:0F7BH         LINE#         787
  C:0F82H         LINE#         788
  C:0F84H         LINE#         791
BL51 BANKED LINKER/LOCATER V6.22.2.0                                                  01/14/2022  09:01:27  PAGE 47


  C:0F8BH         LINE#         792
  C:0F8BH         LINE#         793
  C:0F8FH         LINE#         794
  C:0FB0H         LINE#         795
  C:0FB2H         LINE#         797
  C:0FB2H         LINE#         798
  C:0FD1H         LINE#         799
  C:1015H         LINE#         800
  C:1015H         LINE#         802
  C:105EH         LINE#         803
  C:1086H         LINE#         804
  C:10D7H         LINE#         805
  C:1102H         LINE#         806
  C:1129H         LINE#         807
  C:1155H         LINE#         810
  C:1156H         LINE#         812
  C:1156H         LINE#         813
  C:115EH         LINE#         814
  C:1165H         LINE#         815
  C:1167H         LINE#         817
  C:116EH         LINE#         818
  C:116EH         LINE#         819
  C:1172H         LINE#         820
  C:1193H         LINE#         821
  C:1195H         LINE#         823
  C:1195H         LINE#         824
  C:11B4H         LINE#         825
  C:11F8H         LINE#         826
  C:11F8H         LINE#         828
  C:1241H         LINE#         829
  C:1269H         LINE#         830
  C:12BAH         LINE#         831
  C:12E5H         LINE#         832
  C:130CH         LINE#         833
  C:1338H         LINE#         835
  C:133EH         LINE#         836
  C:133EH         LINE#         837
  C:1345H         LINE#         838
  C:1347H         LINE#         839
  C:1347H         LINE#         841
  C:1347H         LINE#         843
  C:1348H         LINE#         846
  C:1348H         LINE#         848
  C:1348H         LINE#         849
  C:1348H         LINE#         850
  C:1352H         LINE#         851
  C:1352H         LINE#         852
  C:135AH         LINE#         853
  C:1361H         LINE#         854
  C:1363H         LINE#         857
  C:136AH         LINE#         858
  C:136AH         LINE#         859
  C:136EH         LINE#         860
  C:138FH         LINE#         861
  C:1391H         LINE#         863
  C:1391H         LINE#         864
  C:13B0H         LINE#         865
BL51 BANKED LINKER/LOCATER V6.22.2.0                                                  01/14/2022  09:01:27  PAGE 48


  C:13F4H         LINE#         866
  C:13F4H         LINE#         868
  C:143DH         LINE#         869
  C:1465H         LINE#         870
  C:14B6H         LINE#         871
  C:14E1H         LINE#         872
  C:1508H         LINE#         873
  C:1534H         LINE#         876
  C:1535H         LINE#         878
  C:1535H         LINE#         879
  C:153DH         LINE#         880
  C:1544H         LINE#         881
  C:1546H         LINE#         883
  C:154DH         LINE#         884
  C:154DH         LINE#         885
  C:1551H         LINE#         886
  C:1572H         LINE#         887
  C:1574H         LINE#         889
  C:1574H         LINE#         890
  C:1593H         LINE#         891
  C:15D7H         LINE#         892
  C:15D7H         LINE#         894
  C:1620H         LINE#         895
  C:1648H         LINE#         896
  C:1699H         LINE#         897
  C:16C4H         LINE#         898
  C:16EBH         LINE#         899
  C:1717H         LINE#         901
  C:171DH         LINE#         902
  C:171DH         LINE#         903
  C:1724H         LINE#         904
  C:1726H         LINE#         905
  C:1726H         LINE#         907
  C:1726H         LINE#         909
  C:1727H         LINE#         911
  C:1727H         LINE#         913
  C:1727H         LINE#         914
  C:1727H         LINE#         915
  C:1731H         LINE#         916
  C:1731H         LINE#         917
  C:1739H         LINE#         918
  C:1740H         LINE#         919
  C:1742H         LINE#         922
  C:1749H         LINE#         923
  C:1749H         LINE#         924
  C:174FH         LINE#         925
  C:1770H         LINE#         926
  C:1772H         LINE#         928
  C:1772H         LINE#         929
  C:1793H         LINE#         930
  C:17D9H         LINE#         931
  C:17D9H         LINE#         933
  C:1824H         LINE#         934
  C:184EH         LINE#         935
  C:18A1H         LINE#         936
  C:18CEH         LINE#         937
  C:18F7H         LINE#         938
BL51 BANKED LINKER/LOCATER V6.22.2.0                                                  01/14/2022  09:01:27  PAGE 49


  C:1925H         LINE#         941
  C:1926H         LINE#         943
  C:1926H         LINE#         944
  C:192EH         LINE#         945
  C:1935H         LINE#         946
  C:1937H         LINE#         948
  C:193EH         LINE#         949
  C:193EH         LINE#         950
  C:1944H         LINE#         951
  C:1965H         LINE#         952
  C:1967H         LINE#         954
  C:1967H         LINE#         955
  C:1988H         LINE#         956
  C:19CEH         LINE#         957
  C:19CEH         LINE#         959
  C:1A19H         LINE#         960
  C:1A43H         LINE#         961
  C:1A96H         LINE#         962
  C:1AC3H         LINE#         963
  C:1AECH         LINE#         964
  C:1B1AH         LINE#         966
  C:1B1DH         LINE#         967
  C:1B1DH         LINE#         968
  C:1B24H         LINE#         969
  C:1B26H         LINE#         970
  C:1B28H         LINE#         971
  C:1B28H         LINE#         973
  C:1B28H         LINE#         975
  C:1B28H         LINE#         977
  C:1B28H         LINE#         978
  C:1B28H         LINE#         979
  -------         ENDPROC       MODE0_SJ_RGB
  -------         PROC          MODE1_SJ_R
  C:6A20H         LINE#         984
  C:6A20H         LINE#         985
  C:6A20H         LINE#         987
  C:6A26H         LINE#         988
  C:6A26H         LINE#         989
  C:6A28H         LINE#         990
  C:6A2AH         LINE#         991
  C:6A2CH         LINE#         992
  C:6A2EH         LINE#         993
  C:6A30H         LINE#         995
  C:6A30H         LINE#         996
  C:6A4FH         LINE#         997
  C:6A6AH         LINE#         998
  C:6A88H         LINE#         999
  C:6AA3H         LINE#         1000
  C:6AA3H         LINE#         1002
  C:6AC2H         LINE#         1003
  C:6ADDH         LINE#         1004
  C:6AFBH         LINE#         1005
  C:6B16H         LINE#         1007
  C:6B3BH         LINE#         1008
  C:6B62H         LINE#         1009
  C:6B87H         LINE#         1010
  C:6BAEH         LINE#         1012
BL51 BANKED LINKER/LOCATER V6.22.2.0                                                  01/14/2022  09:01:27  PAGE 50


  C:6BD3H         LINE#         1013
  C:6BFAH         LINE#         1014
  C:6C1FH         LINE#         1015
  C:6C46H         LINE#         1019
  C:6C49H         LINE#         1020
  C:6C51H         LINE#         1022
  C:6C58H         LINE#         1023
  C:6C58H         LINE#         1024
  C:6C72H         LINE#         1025
  C:6C72H         LINE#         1026
  C:6C75H         LINE#         1027
  C:6C75H         LINE#         1028
  C:6C78H         LINE#         1029
  C:6C7BH         LINE#         1030
  C:6C7BH         LINE#         1031
  C:6C7BH         LINE#         1032
  C:6C7CH         LINE#         1034
  C:6C7CH         LINE#         1035
  C:6C96H         LINE#         1036
  C:6C96H         LINE#         1037
  C:6C99H         LINE#         1038
  C:6C99H         LINE#         1039
  C:6C9CH         LINE#         1040
  C:6C9FH         LINE#         1041
  C:6C9FH         LINE#         1042
  C:6C9FH         LINE#         1043
  C:6C9FH         LINE#         1045
  -------         ENDPROC       MODE1_SJ_R
  -------         PROC          MODE1_SJ_G
  C:6CA0H         LINE#         1049
  C:6CA0H         LINE#         1050
  C:6CA0H         LINE#         1051
  C:6CA6H         LINE#         1052
  C:6CA6H         LINE#         1053
  C:6CA8H         LINE#         1054
  C:6CAAH         LINE#         1055
  C:6CACH         LINE#         1056
  C:6CAEH         LINE#         1057
  C:6CB0H         LINE#         1059
  C:6CB0H         LINE#         1060
  C:6CCFH         LINE#         1061
  C:6CEAH         LINE#         1062
  C:6D08H         LINE#         1063
  C:6D23H         LINE#         1064
  C:6D23H         LINE#         1066
  C:6D42H         LINE#         1067
  C:6D5DH         LINE#         1068
  C:6D7BH         LINE#         1069
  C:6D96H         LINE#         1071
  C:6DBBH         LINE#         1072
  C:6DE2H         LINE#         1073
  C:6E07H         LINE#         1074
  C:6E2EH         LINE#         1076
  C:6E53H         LINE#         1077
  C:6E7AH         LINE#         1078
  C:6E9FH         LINE#         1079
  C:6EC6H         LINE#         1083
BL51 BANKED LINKER/LOCATER V6.22.2.0                                                  01/14/2022  09:01:27  PAGE 51


  C:6EC9H         LINE#         1084
  C:6ED1H         LINE#         1086
  C:6ED8H         LINE#         1087
  C:6ED8H         LINE#         1088
  C:6EF2H         LINE#         1089
  C:6EF2H         LINE#         1090
  C:6EF5H         LINE#         1091
  C:6EF5H         LINE#         1092
  C:6EF8H         LINE#         1093
  C:6EFBH         LINE#         1094
  C:6EFBH         LINE#         1095
  C:6EFBH         LINE#         1096
  C:6EFCH         LINE#         1098
  C:6EFCH         LINE#         1099
  C:6F16H         LINE#         1100
  C:6F16H         LINE#         1101
  C:6F19H         LINE#         1102
  C:6F19H         LINE#         1103
  C:6F1CH         LINE#         1104
  C:6F1FH         LINE#         1105
  C:6F1FH         LINE#         1106
  C:6F1FH         LINE#         1107
  C:6F1FH         LINE#         1108
  -------         ENDPROC       MODE1_SJ_G
  -------         PROC          MODE1_SJ_B
  C:6F20H         LINE#         1111
  C:6F20H         LINE#         1112
  C:6F20H         LINE#         1114
  C:6F26H         LINE#         1115
  C:6F26H         LINE#         1116
  C:6F28H         LINE#         1117
  C:6F2AH         LINE#         1118
  C:6F2CH         LINE#         1119
  C:6F2EH         LINE#         1120
  C:6F30H         LINE#         1122
  C:6F30H         LINE#         1123
  C:6F4FH         LINE#         1124
  C:6F6AH         LINE#         1125
  C:6F88H         LINE#         1126
  C:6FA3H         LINE#         1127
  C:6FA3H         LINE#         1129
  C:6FC2H         LINE#         1130
  C:6FDDH         LINE#         1131
  C:6FFBH         LINE#         1132
  C:7016H         LINE#         1134
  C:703BH         LINE#         1135
  C:7062H         LINE#         1136
  C:7087H         LINE#         1137
  C:70AEH         LINE#         1139
  C:70D3H         LINE#         1140
  C:70FAH         LINE#         1141
  C:711FH         LINE#         1142
  C:7146H         LINE#         1146
  C:7149H         LINE#         1147
  C:7151H         LINE#         1149
  C:7158H         LINE#         1150
  C:7158H         LINE#         1151
BL51 BANKED LINKER/LOCATER V6.22.2.0                                                  01/14/2022  09:01:27  PAGE 52


  C:7172H         LINE#         1152
  C:7172H         LINE#         1153
  C:7175H         LINE#         1154
  C:7175H         LINE#         1155
  C:7178H         LINE#         1156
  C:717BH         LINE#         1157
  C:717BH         LINE#         1158
  C:717BH         LINE#         1159
  C:717CH         LINE#         1161
  C:717CH         LINE#         1162
  C:7196H         LINE#         1163
  C:7196H         LINE#         1164
  C:7199H         LINE#         1165
  C:7199H         LINE#         1166
  C:719CH         LINE#         1167
  C:719FH         LINE#         1168
  C:719FH         LINE#         1169
  C:719FH         LINE#         1170
  C:719FH         LINE#         1172
  -------         ENDPROC       MODE1_SJ_B
  -------         PROC          MODE1_SJ_RGB
  -------         DO            
  C:3228H         SYMBOL        miaodiandate
  D:0007H         SYMBOL        miao
  -------         ENDDO         
  C:781BH         LINE#         1174
  C:781BH         LINE#         1175
  C:781BH         LINE#         1179
  C:783FH         LINE#         1180
  C:783FH         LINE#         1181
  C:783FH         LINE#         1182
  C:783FH         LINE#         1184
  C:7842H         LINE#         1185
  C:7844H         LINE#         1186
  C:7844H         LINE#         1188
  C:7844H         LINE#         1189
  C:7844H         LINE#         1191
  C:7844H         LINE#         1192
  C:7846H         LINE#         1193
  C:7846H         LINE#         1195
  C:7846H         LINE#         1196
  C:7846H         LINE#         1198
  C:7846H         LINE#         1199
  C:7848H         LINE#         1200
  C:7848H         LINE#         1202
  C:7848H         LINE#         1203
  C:7848H         LINE#         1205
  C:784BH         LINE#         1206
  C:784EH         LINE#         1207
  C:7850H         LINE#         1208
  C:7850H         LINE#         1210
  C:7850H         LINE#         1211
  C:7850H         LINE#         1213
  C:7853H         LINE#         1214
  C:7853H         LINE#         1215
  C:7855H         LINE#         1216
  C:7855H         LINE#         1218
BL51 BANKED LINKER/LOCATER V6.22.2.0                                                  01/14/2022  09:01:27  PAGE 53


  C:7855H         LINE#         1219
  C:7855H         LINE#         1220
  C:7858H         LINE#         1221
  C:7858H         LINE#         1222
  C:785AH         LINE#         1223
  C:785AH         LINE#         1225
  C:785AH         LINE#         1226
  C:785AH         LINE#         1227
  C:785DH         LINE#         1228
  C:7860H         LINE#         1229
  C:7863H         LINE#         1230
  C:7863H         LINE#         1231
  C:7863H         LINE#         1232
  C:7863H         LINE#         1234
  C:7872H         LINE#         1236
  C:787BH         LINE#         1237
  C:787BH         LINE#         1238
  C:7887H         LINE#         1239
  C:7887H         LINE#         1240
  C:788DH         LINE#         1241
  C:788DH         LINE#         1242
  C:7890H         LINE#         1243
  C:78A5H         LINE#         1244
  C:78ABH         LINE#         1245
  C:78ACH         LINE#         1247
  C:78B2H         LINE#         1248
  C:78B2H         LINE#         1249
  C:78B5H         LINE#         1250
  C:78C7H         LINE#         1251
  C:78CDH         LINE#         1252
  C:78CEH         LINE#         1254
  C:78D4H         LINE#         1255
  C:78D4H         LINE#         1256
  C:78D7H         LINE#         1257
  C:78E6H         LINE#         1258
  C:78ECH         LINE#         1259
  C:78EDH         LINE#         1261
  C:78F3H         LINE#         1262
  C:78F3H         LINE#         1263
  C:78F6H         LINE#         1264
  C:7902H         LINE#         1265
  C:7908H         LINE#         1266
  C:7909H         LINE#         1268
  C:790FH         LINE#         1269
  C:790FH         LINE#         1270
  C:7912H         LINE#         1271
  C:791BH         LINE#         1272
  C:7921H         LINE#         1273
  C:7922H         LINE#         1275
  C:7928H         LINE#         1276
  C:7928H         LINE#         1277
  C:792BH         LINE#         1278
  C:7931H         LINE#         1279
  C:7937H         LINE#         1280
  C:7938H         LINE#         1282
  C:793EH         LINE#         1283
  C:793EH         LINE#         1284
BL51 BANKED LINKER/LOCATER V6.22.2.0                                                  01/14/2022  09:01:27  PAGE 54


  C:7941H         LINE#         1285
  C:7944H         LINE#         1286
  C:794AH         LINE#         1287
  C:794BH         LINE#         1288
  C:7954H         LINE#         1289
  C:7954H         LINE#         1290
  C:795BH         LINE#         1291
  C:795BH         LINE#         1292
  C:795CH         LINE#         1295
  C:795CH         LINE#         1296
  C:7962H         LINE#         1297
  C:7962H         LINE#         1298
  C:7965H         LINE#         1299
  C:797AH         LINE#         1300
  C:7980H         LINE#         1301
  C:7981H         LINE#         1303
  C:7987H         LINE#         1304
  C:7987H         LINE#         1305
  C:798AH         LINE#         1306
  C:799CH         LINE#         1307
  C:79A2H         LINE#         1308
  C:79A3H         LINE#         1310
  C:79A9H         LINE#         1311
  C:79A9H         LINE#         1312
  C:79ACH         LINE#         1313
  C:79BBH         LINE#         1314
  C:79C1H         LINE#         1315
  C:79C2H         LINE#         1317
  C:79C8H         LINE#         1318
  C:79C8H         LINE#         1319
  C:79CBH         LINE#         1320
  C:79D7H         LINE#         1321
  C:79DDH         LINE#         1322
  C:79DEH         LINE#         1324
  C:79E4H         LINE#         1325
  C:79E4H         LINE#         1326
  C:79E7H         LINE#         1327
  C:79F0H         LINE#         1328
  C:79F6H         LINE#         1329
  C:79F7H         LINE#         1331
  C:79FDH         LINE#         1332
  C:79FDH         LINE#         1333
  C:7A00H         LINE#         1334
  C:7A06H         LINE#         1335
  C:7A0CH         LINE#         1336
  C:7A0DH         LINE#         1338
  C:7A13H         LINE#         1339
  C:7A13H         LINE#         1340
  C:7A16H         LINE#         1341
  C:7A19H         LINE#         1342
  C:7A1FH         LINE#         1343
  C:7A20H         LINE#         1344
  C:7A26H         LINE#         1345
  C:7A26H         LINE#         1346
  C:7A2DH         LINE#         1347
  C:7A2DH         LINE#         1348
  C:7A2DH         LINE#         1349
BL51 BANKED LINKER/LOCATER V6.22.2.0                                                  01/14/2022  09:01:27  PAGE 55


  C:7A2DH         LINE#         1350
  -------         ENDPROC       MODE1_SJ_RGB
  -------         PROC          MODE2_SJ_R
  -------         DO            
  D:0006H         SYMBOL        row3
  D:0007H         SYMBOL        row4
  -------         ENDDO         
  C:64C2H         LINE#         1353
  C:64C2H         LINE#         1354
  C:64C2H         LINE#         1357
  C:64CCH         LINE#         1358
  C:64CCH         LINE#         1360
  C:64D3H         LINE#         1361
  C:64DAH         LINE#         1363
  C:64E1H         LINE#         1364
  C:64E7H         LINE#         1366
  C:64E7H         LINE#         1367
  C:6504H         LINE#         1368
  C:6521H         LINE#         1369
  C:6521H         LINE#         1371
  C:6569H         LINE#         1372
  C:6571H         LINE#         1373
  C:6598H         LINE#         1374
  C:65C1H         LINE#         1375
  C:65E2H         LINE#         1376
  C:65FFH         LINE#         1380
  C:6602H         LINE#         1381
  C:6602H         LINE#         1382
  C:660AH         LINE#         1383
  C:6612H         LINE#         1384
  C:6613H         LINE#         1386
  C:6613H         LINE#         1387
  C:6613H         LINE#         1388
  C:6613H         LINE#         1389
  C:6613H         LINE#         1390
  C:6616H         LINE#         1392
  C:6616H         LINE#         1394
  C:661DH         LINE#         1395
  C:6624H         LINE#         1397
  C:662BH         LINE#         1398
  C:6631H         LINE#         1400
  C:6631H         LINE#         1401
  C:664EH         LINE#         1402
  C:666BH         LINE#         1403
  C:666BH         LINE#         1405
  C:66B3H         LINE#         1406
  C:66BBH         LINE#         1407
  C:66E2H         LINE#         1408
  C:670BH         LINE#         1409
  C:672CH         LINE#         1410
  C:6749H         LINE#         1412
  C:674CH         LINE#         1413
  C:6754H         LINE#         1415
  C:6757H         LINE#         1416
  C:6757H         LINE#         1417
  C:675FH         LINE#         1418
  C:6767H         LINE#         1419
BL51 BANKED LINKER/LOCATER V6.22.2.0                                                  01/14/2022  09:01:27  PAGE 56


  C:6768H         LINE#         1421
  C:6768H         LINE#         1422
  C:676CH         LINE#         1423
  C:6770H         LINE#         1424
  C:6770H         LINE#         1425
  C:6770H         LINE#         1427
  -------         ENDPROC       MODE2_SJ_R
  -------         PROC          MODE2_SJ_G
  C:A299H         LINE#         1430
  C:A299H         LINE#         1431
  C:A299H         LINE#         1432
  C:A2A0H         LINE#         1433
  C:A2A0H         LINE#         1435
  C:A2A3H         LINE#         1436
  C:A2A3H         LINE#         1438
  C:A2ABH         LINE#         1439
  C:A2B3H         LINE#         1440
  C:A2B4H         LINE#         1445
  C:A2B4H         LINE#         1446
  C:A2B7H         LINE#         1447
  C:A2B7H         LINE#         1449
  C:A2BFH         LINE#         1450
  C:A2C7H         LINE#         1451
  C:A2C8H         LINE#         1453
  C:A2CFH         LINE#         1454
  C:A2CFH         LINE#         1456
  -------         ENDPROC       MODE2_SJ_G
  -------         PROC          MODE3_SJ_R
  -------         DO            
  D:0006H         SYMBOL        row3
  D:0007H         SYMBOL        row4
  -------         ENDDO         
  C:6771H         LINE#         1459
  C:6771H         LINE#         1460
  C:6771H         LINE#         1463
  C:677BH         LINE#         1464
  C:677BH         LINE#         1466
  C:6782H         LINE#         1467
  C:6789H         LINE#         1469
  C:6790H         LINE#         1470
  C:6796H         LINE#         1472
  C:6796H         LINE#         1473
  C:67B3H         LINE#         1474
  C:67D0H         LINE#         1475
  C:67D0H         LINE#         1477
  C:6818H         LINE#         1478
  C:6820H         LINE#         1479
  C:6847H         LINE#         1480
  C:6870H         LINE#         1481
  C:6891H         LINE#         1482
  C:68AEH         LINE#         1486
  C:68B4H         LINE#         1487
  C:68B4H         LINE#         1489
  C:68BCH         LINE#         1490
  C:68C4H         LINE#         1491
  C:68C5H         LINE#         1493
  C:68C5H         LINE#         1494
BL51 BANKED LINKER/LOCATER V6.22.2.0                                                  01/14/2022  09:01:27  PAGE 57


  C:68C5H         LINE#         1495
  C:68C5H         LINE#         1497
  C:68C5H         LINE#         1499
  C:68CCH         LINE#         1500
  C:68D3H         LINE#         1502
  C:68DAH         LINE#         1503
  C:68E0H         LINE#         1505
  C:68E0H         LINE#         1506
  C:68FDH         LINE#         1507
  C:691AH         LINE#         1508
  C:691AH         LINE#         1510
  C:6962H         LINE#         1511
  C:696AH         LINE#         1512
  C:6991H         LINE#         1513
  C:69BAH         LINE#         1514
  C:69DBH         LINE#         1515
  C:69F8H         LINE#         1517
  C:69FBH         LINE#         1518
  C:6A03H         LINE#         1520
  C:6A06H         LINE#         1521
  C:6A06H         LINE#         1522
  C:6A0EH         LINE#         1523
  C:6A16H         LINE#         1524
  C:6A17H         LINE#         1526
  C:6A17H         LINE#         1527
  C:6A1BH         LINE#         1528
  C:6A1FH         LINE#         1529
  C:6A1FH         LINE#         1530
  C:6A1FH         LINE#         1532
  -------         ENDPROC       MODE3_SJ_R
  -------         PROC          MODE3_SJ_G
  C:A2D0H         LINE#         1535
  C:A2D0H         LINE#         1536
  C:A2D0H         LINE#         1537
  C:A2D7H         LINE#         1538
  C:A2D7H         LINE#         1540
  C:A2DAH         LINE#         1541
  C:A2DAH         LINE#         1543
  C:A2E2H         LINE#         1544
  C:A2EAH         LINE#         1545
  C:A2EBH         LINE#         1550
  C:A2EBH         LINE#         1551
  C:A2EEH         LINE#         1552
  C:A2EEH         LINE#         1554
  C:A2F6H         LINE#         1555
  C:A2FEH         LINE#         1556
  C:A2FFH         LINE#         1558
  C:A306H         LINE#         1559
  C:A306H         LINE#         1561
  -------         ENDPROC       MODE3_SJ_G
  -------         PROC          MODE4567_RQ_G
  -------         DO            
  X:0032H         SYMBOL        row1
  D:0007H         SYMBOL        row2
  -------         ENDDO         
  C:8A03H         LINE#         1565
  C:8A03H         LINE#         1566
BL51 BANKED LINKER/LOCATER V6.22.2.0                                                  01/14/2022  09:01:27  PAGE 58


  C:8A03H         LINE#         1569
  C:8A0BH         LINE#         1570
  C:8A10H         LINE#         1572
  C:8A17H         LINE#         1573
  C:8A17H         LINE#         1581
  C:8A37H         LINE#         1583
  C:8A40H         LINE#         1584
  C:8A40H         LINE#         1585
  C:8A43H         LINE#         1586
  C:8A46H         LINE#         1587
  C:8A49H         LINE#         1588
  C:8A49H         LINE#         1589
  C:8A4AH         LINE#         1591
  C:8A4AH         LINE#         1593
  C:8A69H         LINE#         1594
  C:8A88H         LINE#         1595
  C:8A8FH         LINE#         1596
  C:8AAEH         LINE#         1597
  C:8AD0H         LINE#         1599
  C:8AFDH         LINE#         1600
  C:8B24H         LINE#         1601
  C:8B2BH         LINE#         1617
  C:8B2BH         LINE#         1618
  -------         ENDPROC       MODE4567_RQ_G
  -------         PROC          MODE4567_RQ_R
  -------         DO            
  X:0032H         SYMBOL        row1
  D:0007H         SYMBOL        row2
  -------         ENDDO         
  C:81EAH         LINE#         1621
  C:81EAH         LINE#         1622
  C:81EAH         LINE#         1625
  C:81F2H         LINE#         1626
  C:81F7H         LINE#         1628
  C:8201H         LINE#         1629
  C:8201H         LINE#         1630
  C:821CH         LINE#         1631
  C:8246H         LINE#         1632
  C:8271H         LINE#         1633
  C:8291H         LINE#         1634
  C:82B5H         LINE#         1635
  C:82D7H         LINE#         1636
  C:82FCH         LINE#         1637
  C:831CH         LINE#         1638
  C:831DH         LINE#         1640
  C:831DH         LINE#         1641
  C:8341H         LINE#         1642
  C:8368H         LINE#         1644
  C:8368H         LINE#         1645
  -------         ENDPROC       MODE4567_RQ_R
  -------         PROC          MODE4_SJ_G
  C:A6ABH         LINE#         1648
  C:A6ABH         LINE#         1649
  C:A6ABH         LINE#         1650
  C:A6AEH         LINE#         1651
  C:A6AEH         LINE#         1652
  C:A6B6H         LINE#         1653
BL51 BANKED LINKER/LOCATER V6.22.2.0                                                  01/14/2022  09:01:27  PAGE 59


  C:A6BEH         LINE#         1654
  C:A6BEH         LINE#         1655
  -------         ENDPROC       MODE4_SJ_G
  -------         PROC          MODE4_SJ_R
  -------         DO            
  D:0007H         SYMBOL        row1
  D:0006H         SYMBOL        row2
  -------         ENDDO         
  C:3231H         LINE#         1658
  C:3231H         LINE#         1659
  C:3231H         LINE#         1663
  C:3237H         LINE#         1664
  C:323DH         LINE#         1668
  C:3264H         LINE#         1669
  C:3264H         LINE#         1670
  C:3264H         LINE#         1671
  C:3264H         LINE#         1673
  C:326BH         LINE#         1674
  C:326BH         LINE#         1675
  C:326DH         LINE#         1676
  C:3290H         LINE#         1677
  C:3292H         LINE#         1679
  C:3292H         LINE#         1680
  C:32AFH         LINE#         1681
  C:32F1H         LINE#         1682
  C:32F1H         LINE#         1684
  C:3338H         LINE#         1685
  C:335EH         LINE#         1686
  C:33ADH         LINE#         1687
  C:33D6H         LINE#         1688
  C:33FCH         LINE#         1689
  C:3427H         LINE#         1690
  C:342AH         LINE#         1691
  C:342AH         LINE#         1693
  C:342AH         LINE#         1694
  C:342AH         LINE#         1696
  C:3431H         LINE#         1697
  C:3431H         LINE#         1698
  C:3433H         LINE#         1699
  C:3456H         LINE#         1700
  C:3458H         LINE#         1702
  C:3458H         LINE#         1703
  C:3475H         LINE#         1704
  C:34B7H         LINE#         1705
  C:34B7H         LINE#         1707
  C:34FEH         LINE#         1708
  C:3524H         LINE#         1709
  C:3573H         LINE#         1710
  C:359CH         LINE#         1711
  C:35C2H         LINE#         1712
  C:35EDH         LINE#         1713
  C:35F0H         LINE#         1714
  C:35F0H         LINE#         1716
  C:35F0H         LINE#         1717
  C:35F0H         LINE#         1719
  C:35F7H         LINE#         1720
  C:35F7H         LINE#         1721
BL51 BANKED LINKER/LOCATER V6.22.2.0                                                  01/14/2022  09:01:27  PAGE 60


  C:35F9H         LINE#         1722
  C:361CH         LINE#         1723
  C:361EH         LINE#         1725
  C:361EH         LINE#         1726
  C:363BH         LINE#         1727
  C:367DH         LINE#         1728
  C:367DH         LINE#         1730
  C:36C4H         LINE#         1731
  C:36EAH         LINE#         1732
  C:3739H         LINE#         1733
  C:3762H         LINE#         1734
  C:3788H         LINE#         1735
  C:37B3H         LINE#         1736
  C:37B6H         LINE#         1737
  C:37B6H         LINE#         1739
  C:37B6H         LINE#         1740
  C:37B6H         LINE#         1742
  C:37BDH         LINE#         1743
  C:37BDH         LINE#         1744
  C:37C1H         LINE#         1745
  C:37E2H         LINE#         1746
  C:37E4H         LINE#         1748
  C:37E4H         LINE#         1749
  C:3803H         LINE#         1750
  C:3847H         LINE#         1751
  C:3847H         LINE#         1753
  C:3890H         LINE#         1754
  C:38B8H         LINE#         1755
  C:3909H         LINE#         1756
  C:3934H         LINE#         1757
  C:395CH         LINE#         1758
  C:3985H         LINE#         1759
  C:3988H         LINE#         1760
  C:3988H         LINE#         1762
  C:3988H         LINE#         1763
  C:3988H         LINE#         1765
  C:398FH         LINE#         1766
  C:398FH         LINE#         1767
  C:3993H         LINE#         1768
  C:39B4H         LINE#         1769
  C:39B6H         LINE#         1771
  C:39B6H         LINE#         1772
  C:39D5H         LINE#         1773
  C:3A19H         LINE#         1774
  C:3A19H         LINE#         1776
  C:3A62H         LINE#         1777
  C:3A8AH         LINE#         1778
  C:3ADBH         LINE#         1779
  C:3B06H         LINE#         1780
  C:3B2EH         LINE#         1781
  C:3B5BH         LINE#         1782
  C:3B5EH         LINE#         1783
  C:3B5EH         LINE#         1785
  C:3B5EH         LINE#         1786
  C:3B5EH         LINE#         1788
  C:3B65H         LINE#         1789
  C:3B65H         LINE#         1790
BL51 BANKED LINKER/LOCATER V6.22.2.0                                                  01/14/2022  09:01:27  PAGE 61


  C:3B69H         LINE#         1791
  C:3B8AH         LINE#         1792
  C:3B8CH         LINE#         1794
  C:3B8CH         LINE#         1795
  C:3BABH         LINE#         1796
  C:3BEFH         LINE#         1797
  C:3BEFH         LINE#         1799
  C:3C38H         LINE#         1800
  C:3C60H         LINE#         1801
  C:3CB1H         LINE#         1802
  C:3CDCH         LINE#         1803
  C:3D04H         LINE#         1804
  C:3D31H         LINE#         1805
  C:3D34H         LINE#         1806
  C:3D34H         LINE#         1808
  C:3D34H         LINE#         1809
  C:3D34H         LINE#         1812
  C:3D3BH         LINE#         1813
  C:3D3BH         LINE#         1814
  C:3D41H         LINE#         1815
  C:3D62H         LINE#         1816
  C:3D64H         LINE#         1818
  C:3D64H         LINE#         1819
  C:3D85H         LINE#         1820
  C:3DCBH         LINE#         1821
  C:3DCBH         LINE#         1823
  C:3E16H         LINE#         1824
  C:3E40H         LINE#         1825
  C:3E93H         LINE#         1826
  C:3EC0H         LINE#         1827
  C:3EEAH         LINE#         1828
  C:3F19H         LINE#         1829
  C:3F19H         LINE#         1830
  C:3F19H         LINE#         1831
  C:3F19H         LINE#         1833
  C:3F1CH         LINE#         1834
  C:3F1CH         LINE#         1835
  C:3F24H         LINE#         1838
  C:3F24H         LINE#         1840
  C:3F27H         LINE#         1841
  C:3F27H         LINE#         1843
  C:3F2FH         LINE#         1844
  C:3F37H         LINE#         1845
  C:3F37H         LINE#         1847
  -------         ENDPROC       MODE4_SJ_R
  -------         PROC          MODE5_SJ_G
  C:A6BFH         LINE#         1849
  C:A6BFH         LINE#         1850
  C:A6BFH         LINE#         1851
  C:A6C2H         LINE#         1852
  C:A6C2H         LINE#         1854
  C:A6CAH         LINE#         1855
  C:A6D2H         LINE#         1856
  C:A6D2H         LINE#         1857
  -------         ENDPROC       MODE5_SJ_G
  -------         PROC          MODE5_SJ_R
  -------         DO            
BL51 BANKED LINKER/LOCATER V6.22.2.0                                                  01/14/2022  09:01:27  PAGE 62


  D:0007H         SYMBOL        row1
  -------         ENDDO         
  C:5DD8H         LINE#         1860
  C:5DD8H         LINE#         1861
  C:5DD8H         LINE#         1864
  C:5DDCH         LINE#         1869
  C:5E03H         LINE#         1870
  C:5E03H         LINE#         1871
  C:5E03H         LINE#         1872
  C:5E03H         LINE#         1874
  C:5E0EH         LINE#         1876
  C:5E29H         LINE#         1878
  C:5E4CH         LINE#         1879
  C:5E54H         LINE#         1880
  C:5E77H         LINE#         1881
  C:5EA1H         LINE#         1882
  C:5EA7H         LINE#         1883
  C:5EC9H         LINE#         1884
  C:5EE9H         LINE#         1885
  C:5EECH         LINE#         1886
  C:5EECH         LINE#         1888
  C:5EECH         LINE#         1889
  C:5EECH         LINE#         1890
  C:5EF7H         LINE#         1892
  C:5F12H         LINE#         1894
  C:5F35H         LINE#         1895
  C:5F3DH         LINE#         1896
  C:5F60H         LINE#         1897
  C:5F8AH         LINE#         1898
  C:5F90H         LINE#         1899
  C:5FB2H         LINE#         1900
  C:5FD2H         LINE#         1901
  C:5FD5H         LINE#         1902
  C:5FD5H         LINE#         1904
  C:5FD5H         LINE#         1905
  C:5FD5H         LINE#         1906
  C:5FE0H         LINE#         1908
  C:5FFBH         LINE#         1910
  C:601EH         LINE#         1911
  C:6026H         LINE#         1912
  C:6049H         LINE#         1913
  C:6073H         LINE#         1914
  C:6079H         LINE#         1915
  C:609BH         LINE#         1916
  C:60BBH         LINE#         1917
  C:60BEH         LINE#         1918
  C:60BEH         LINE#         1920
  C:60BEH         LINE#         1921
  C:60BEH         LINE#         1922
  C:60C7H         LINE#         1924
  C:60E4H         LINE#         1926
  C:6109H         LINE#         1927
  C:6113H         LINE#         1928
  C:6138H         LINE#         1929
  C:6164H         LINE#         1930
  C:616CH         LINE#         1931
  C:6190H         LINE#         1932
BL51 BANKED LINKER/LOCATER V6.22.2.0                                                  01/14/2022  09:01:27  PAGE 63


  C:61B2H         LINE#         1933
  C:61B5H         LINE#         1934
  C:61B5H         LINE#         1936
  C:61B5H         LINE#         1937
  C:61B5H         LINE#         1938
  C:61BEH         LINE#         1940
  C:61DBH         LINE#         1942
  C:6200H         LINE#         1943
  C:620AH         LINE#         1944
  C:622FH         LINE#         1945
  C:625BH         LINE#         1946
  C:6263H         LINE#         1947
  C:6287H         LINE#         1948
  C:62A5H         LINE#         1949
  C:62A8H         LINE#         1950
  C:62A8H         LINE#         1952
  C:62A8H         LINE#         1953
  C:62A8H         LINE#         1954
  C:62B1H         LINE#         1956
  C:62CEH         LINE#         1958
  C:62F3H         LINE#         1959
  C:62FDH         LINE#         1960
  C:6322H         LINE#         1961
  C:634EH         LINE#         1962
  C:6356H         LINE#         1963
  C:637AH         LINE#         1964
  C:639CH         LINE#         1965
  C:639FH         LINE#         1966
  C:639FH         LINE#         1968
  C:639FH         LINE#         1969
  C:639FH         LINE#         1970
  C:63A8H         LINE#         1972
  C:63C7H         LINE#         1974
  C:63EEH         LINE#         1975
  C:63FAH         LINE#         1976
  C:6421H         LINE#         1977
  C:644FH         LINE#         1978
  C:6459H         LINE#         1979
  C:647FH         LINE#         1980
  C:64A3H         LINE#         1981
  C:64A3H         LINE#         1982
  C:64A3H         LINE#         1983
  C:64A3H         LINE#         1985
  C:64A6H         LINE#         1986
  C:64A6H         LINE#         1988
  C:64AEH         LINE#         1989
  C:64B6H         LINE#         1990
  C:64B6H         LINE#         1992
  C:64B9H         LINE#         1993
  C:64C1H         LINE#         1996
  -------         ENDPROC       MODE5_SJ_R
  -------         PROC          MODE6_SJ_G
  C:A61EH         LINE#         1998
  C:A61EH         LINE#         1999
  C:A61EH         LINE#         2002
  C:A621H         LINE#         2003
  C:A621H         LINE#         2005
BL51 BANKED LINKER/LOCATER V6.22.2.0                                                  01/14/2022  09:01:27  PAGE 64


  C:A629H         LINE#         2006
  C:A631H         LINE#         2008
  C:A632H         LINE#         2010
  C:A635H         LINE#         2012
  -------         ENDPROC       MODE6_SJ_G
  -------         PROC          MODE6_SJ_R
  -------         DO            
  D:0007H         SYMBOL        row3
  D:0006H         SYMBOL        row4
  -------         ENDDO         
  C:4C3AH         LINE#         2014
  C:4C3AH         LINE#         2015
  C:4C3AH         LINE#         2018
  C:4C41H         LINE#         2019
  C:4C41H         LINE#         2021
  C:4C45H         LINE#         2022
  C:4C4BH         LINE#         2024
  C:4C72H         LINE#         2025
  C:4C72H         LINE#         2026
  C:4C72H         LINE#         2027
  C:4C72H         LINE#         2029
  C:4C79H         LINE#         2030
  C:4C7FH         LINE#         2032
  C:4C7FH         LINE#         2033
  C:4C9CH         LINE#         2034
  C:4CB9H         LINE#         2035
  C:4CB9H         LINE#         2037
  C:4D01H         LINE#         2038
  C:4D09H         LINE#         2039
  C:4D30H         LINE#         2040
  C:4D59H         LINE#         2041
  C:4D7AH         LINE#         2042
  C:4D97H         LINE#         2043
  C:4D9AH         LINE#         2044
  C:4D9AH         LINE#         2046
  C:4D9AH         LINE#         2047
  C:4D9AH         LINE#         2049
  C:4DA1H         LINE#         2050
  C:4DA7H         LINE#         2052
  C:4DA7H         LINE#         2053
  C:4DC4H         LINE#         2054
  C:4DE1H         LINE#         2055
  C:4DE1H         LINE#         2057
  C:4E29H         LINE#         2058
  C:4E31H         LINE#         2059
  C:4E58H         LINE#         2060
  C:4E81H         LINE#         2061
  C:4EA2H         LINE#         2062
  C:4EBFH         LINE#         2063
  C:4EC2H         LINE#         2064
  C:4EC2H         LINE#         2066
  C:4EC2H         LINE#         2067
  C:4EC2H         LINE#         2069
  C:4EC9H         LINE#         2070
  C:4ECFH         LINE#         2072
  C:4ECFH         LINE#         2073
  C:4EECH         LINE#         2074
BL51 BANKED LINKER/LOCATER V6.22.2.0                                                  01/14/2022  09:01:27  PAGE 65


  C:4F09H         LINE#         2075
  C:4F09H         LINE#         2077
  C:4F51H         LINE#         2078
  C:4F59H         LINE#         2079
  C:4F80H         LINE#         2080
  C:4FA9H         LINE#         2081
  C:4FCAH         LINE#         2082
  C:4FE7H         LINE#         2083
  C:4FEAH         LINE#         2084
  C:4FEAH         LINE#         2086
  C:4FEAH         LINE#         2087
  C:4FEAH         LINE#         2089
  C:4FF1H         LINE#         2090
  C:4FFBH         LINE#         2092
  C:4FFBH         LINE#         2093
  C:501AH         LINE#         2094
  C:5039H         LINE#         2095
  C:5039H         LINE#         2097
  C:5083H         LINE#         2098
  C:508DH         LINE#         2099
  C:50B6H         LINE#         2100
  C:50E1H         LINE#         2101
  C:5104H         LINE#         2102
  C:511FH         LINE#         2103
  C:5122H         LINE#         2104
  C:5122H         LINE#         2106
  C:5122H         LINE#         2107
  C:5122H         LINE#         2109
  C:5129H         LINE#         2110
  C:5133H         LINE#         2112
  C:5133H         LINE#         2113
  C:5152H         LINE#         2114
  C:5171H         LINE#         2115
  C:5171H         LINE#         2117
  C:51BBH         LINE#         2118
  C:51C5H         LINE#         2119
  C:51EEH         LINE#         2120
  C:5219H         LINE#         2121
  C:523CH         LINE#         2122
  C:525BH         LINE#         2123
  C:525EH         LINE#         2124
  C:525EH         LINE#         2126
  C:525EH         LINE#         2127
  C:525EH         LINE#         2130
  C:5265H         LINE#         2131
  C:526FH         LINE#         2133
  C:526FH         LINE#         2134
  C:528EH         LINE#         2135
  C:52ADH         LINE#         2136
  C:52ADH         LINE#         2138
  C:52F7H         LINE#         2139
  C:5301H         LINE#         2140
  C:532AH         LINE#         2141
  C:5355H         LINE#         2142
  C:5378H         LINE#         2143
  C:5397H         LINE#         2144
  C:539AH         LINE#         2145
BL51 BANKED LINKER/LOCATER V6.22.2.0                                                  01/14/2022  09:01:27  PAGE 66


  C:539AH         LINE#         2147
  C:539AH         LINE#         2148
  C:539AH         LINE#         2150
  C:53A1H         LINE#         2151
  C:53AFH         LINE#         2153
  C:53AFH         LINE#         2154
  C:53D0H         LINE#         2155
  C:53F4H         LINE#         2156
  C:53F4H         LINE#         2158
  C:5440H         LINE#         2159
  C:544CH         LINE#         2160
  C:5477H         LINE#         2161
  C:54A4H         LINE#         2162
  C:54C9H         LINE#         2163
  C:54EAH         LINE#         2164
  C:54EAH         LINE#         2165
  C:54EAH         LINE#         2166
  C:54EAH         LINE#         2169
  C:54EDH         LINE#         2170
  C:54EDH         LINE#         2171
  C:54F5H         LINE#         2172
  C:54FDH         LINE#         2173
  C:54FDH         LINE#         2174
  C:54FDH         LINE#         2176
  C:5500H         LINE#         2177
  C:5508H         LINE#         2178
  -------         ENDPROC       MODE6_SJ_R
  -------         PROC          MODE7_SJ_G
  C:A636H         LINE#         2181
  C:A636H         LINE#         2182
  C:A636H         LINE#         2185
  C:A639H         LINE#         2186
  C:A639H         LINE#         2188
  C:A641H         LINE#         2189
  C:A649H         LINE#         2191
  C:A64AH         LINE#         2193
  C:A64DH         LINE#         2195
  -------         ENDPROC       MODE7_SJ_G
  -------         PROC          MODE7_SJ_R
  -------         DO            
  D:0007H         SYMBOL        row3
  D:0006H         SYMBOL        row4
  -------         ENDDO         
  C:5509H         LINE#         2196
  C:5509H         LINE#         2197
  C:5509H         LINE#         2200
  C:5510H         LINE#         2201
  C:5510H         LINE#         2203
  C:5514H         LINE#         2204
  C:551AH         LINE#         2206
  C:5541H         LINE#         2207
  C:5541H         LINE#         2208
  C:5541H         LINE#         2209
  C:5541H         LINE#         2211
  C:5548H         LINE#         2212
  C:554EH         LINE#         2214
  C:554EH         LINE#         2215
BL51 BANKED LINKER/LOCATER V6.22.2.0                                                  01/14/2022  09:01:27  PAGE 67


  C:556BH         LINE#         2216
  C:5588H         LINE#         2217
  C:5588H         LINE#         2219
  C:55D0H         LINE#         2220
  C:55D8H         LINE#         2221
  C:55FFH         LINE#         2222
  C:5628H         LINE#         2223
  C:5649H         LINE#         2224
  C:5666H         LINE#         2225
  C:5669H         LINE#         2226
  C:5669H         LINE#         2228
  C:5669H         LINE#         2229
  C:5669H         LINE#         2231
  C:5670H         LINE#         2232
  C:5676H         LINE#         2234
  C:5676H         LINE#         2235
  C:5693H         LINE#         2236
  C:56B0H         LINE#         2237
  C:56B0H         LINE#         2239
  C:56F8H         LINE#         2240
  C:5700H         LINE#         2241
  C:5727H         LINE#         2242
  C:5750H         LINE#         2243
  C:5771H         LINE#         2244
  C:578EH         LINE#         2245
  C:5791H         LINE#         2246
  C:5791H         LINE#         2248
  C:5791H         LINE#         2249
  C:5791H         LINE#         2251
  C:5798H         LINE#         2252
  C:579EH         LINE#         2254
  C:579EH         LINE#         2255
  C:57BBH         LINE#         2256
  C:57D8H         LINE#         2257
  C:57D8H         LINE#         2259
  C:5820H         LINE#         2260
  C:5828H         LINE#         2261
  C:584FH         LINE#         2262
  C:5878H         LINE#         2263
  C:5899H         LINE#         2264
  C:58B6H         LINE#         2265
  C:58B9H         LINE#         2266
  C:58B9H         LINE#         2268
  C:58B9H         LINE#         2269
  C:58B9H         LINE#         2271
  C:58C0H         LINE#         2272
  C:58CAH         LINE#         2274
  C:58CAH         LINE#         2275
  C:58E9H         LINE#         2276
  C:5908H         LINE#         2277
  C:5908H         LINE#         2279
  C:5952H         LINE#         2280
  C:595CH         LINE#         2281
  C:5985H         LINE#         2282
  C:59B0H         LINE#         2283
  C:59D3H         LINE#         2284
  C:59EEH         LINE#         2285
BL51 BANKED LINKER/LOCATER V6.22.2.0                                                  01/14/2022  09:01:27  PAGE 68


  C:59F1H         LINE#         2286
  C:59F1H         LINE#         2288
  C:59F1H         LINE#         2289
  C:59F1H         LINE#         2291
  C:59F8H         LINE#         2292
  C:5A02H         LINE#         2294
  C:5A02H         LINE#         2295
  C:5A21H         LINE#         2296
  C:5A40H         LINE#         2297
  C:5A40H         LINE#         2299
  C:5A8AH         LINE#         2300
  C:5A94H         LINE#         2301
  C:5ABDH         LINE#         2302
  C:5AE8H         LINE#         2303
  C:5B0BH         LINE#         2304
  C:5B2AH         LINE#         2305
  C:5B2DH         LINE#         2306
  C:5B2DH         LINE#         2308
  C:5B2DH         LINE#         2309
  C:5B2DH         LINE#         2312
  C:5B34H         LINE#         2313
  C:5B3EH         LINE#         2315
  C:5B3EH         LINE#         2316
  C:5B5DH         LINE#         2317
  C:5B7CH         LINE#         2318
  C:5B7CH         LINE#         2320
  C:5BC6H         LINE#         2321
  C:5BD0H         LINE#         2322
  C:5BF9H         LINE#         2323
  C:5C24H         LINE#         2324
  C:5C47H         LINE#         2325
  C:5C66H         LINE#         2326
  C:5C69H         LINE#         2327
  C:5C69H         LINE#         2329
  C:5C69H         LINE#         2330
  C:5C69H         LINE#         2332
  C:5C70H         LINE#         2333
  C:5C7EH         LINE#         2335
  C:5C7EH         LINE#         2336
  C:5C9FH         LINE#         2337
  C:5CC3H         LINE#         2338
  C:5CC3H         LINE#         2340
  C:5D0FH         LINE#         2341
  C:5D1BH         LINE#         2342
  C:5D46H         LINE#         2343
  C:5D73H         LINE#         2344
  C:5D98H         LINE#         2345
  C:5DB9H         LINE#         2346
  C:5DB9H         LINE#         2347
  C:5DB9H         LINE#         2348
  C:5DB9H         LINE#         2351
  C:5DBCH         LINE#         2352
  C:5DBCH         LINE#         2353
  C:5DC4H         LINE#         2354
  C:5DCCH         LINE#         2355
  C:5DCCH         LINE#         2356
  C:5DCCH         LINE#         2358
BL51 BANKED LINKER/LOCATER V6.22.2.0                                                  01/14/2022  09:01:27  PAGE 69


  C:5DCFH         LINE#         2359
  C:5DD7H         LINE#         2360
  -------         ENDPROC       MODE7_SJ_R
  -------         PROC          MODE8_SJ_G
  C:A6D3H         LINE#         2364
  C:A6D3H         LINE#         2365
  C:A6D3H         LINE#         2366
  C:A6D6H         LINE#         2367
  C:A6D6H         LINE#         2369
  C:A6DEH         LINE#         2370
  C:A6E6H         LINE#         2371
  C:A6E6H         LINE#         2372
  -------         ENDPROC       MODE8_SJ_G
  -------         PROC          MODE8_SJ_R
  -------         DO            
  D:0006H         SYMBOL        row1
  D:0007H         SYMBOL        row2
  -------         ENDDO         
  C:3F38H         LINE#         2374
  C:3F38H         LINE#         2375
  C:3F38H         LINE#         2379
  C:3F3DH         LINE#         2380
  C:3F3FH         LINE#         2382
  C:3F66H         LINE#         2383
  C:3F66H         LINE#         2384
  C:3F66H         LINE#         2385
  C:3F66H         LINE#         2387
  C:3F6DH         LINE#         2388
  C:3F6DH         LINE#         2389
  C:3F6FH         LINE#         2390
  C:3F92H         LINE#         2391
  C:3F94H         LINE#         2393
  C:3F94H         LINE#         2394
  C:3FB1H         LINE#         2395
  C:3FF3H         LINE#         2396
  C:3FF3H         LINE#         2398
  C:403AH         LINE#         2399
  C:4060H         LINE#         2400
  C:40AFH         LINE#         2401
  C:40D8H         LINE#         2402
  C:40FEH         LINE#         2403
  C:4129H         LINE#         2404
  C:412CH         LINE#         2405
  C:412CH         LINE#         2407
  C:412CH         LINE#         2408
  C:412CH         LINE#         2410
  C:4133H         LINE#         2411
  C:4133H         LINE#         2412
  C:4135H         LINE#         2413
  C:4158H         LINE#         2414
  C:415AH         LINE#         2416
  C:415AH         LINE#         2417
  C:4177H         LINE#         2418
  C:41B9H         LINE#         2419
  C:41B9H         LINE#         2421
  C:4200H         LINE#         2422
  C:4226H         LINE#         2423
BL51 BANKED LINKER/LOCATER V6.22.2.0                                                  01/14/2022  09:01:27  PAGE 70


  C:4275H         LINE#         2424
  C:429EH         LINE#         2425
  C:42C4H         LINE#         2426
  C:42EFH         LINE#         2427
  C:42F2H         LINE#         2428
  C:42F2H         LINE#         2430
  C:42F2H         LINE#         2431
  C:42F2H         LINE#         2433
  C:42F9H         LINE#         2434
  C:42F9H         LINE#         2435
  C:42FBH         LINE#         2436
  C:431EH         LINE#         2437
  C:4320H         LINE#         2439
  C:4320H         LINE#         2440
  C:433DH         LINE#         2441
  C:437FH         LINE#         2442
  C:437FH         LINE#         2444
  C:43C6H         LINE#         2445
  C:43ECH         LINE#         2446
  C:443BH         LINE#         2447
  C:4464H         LINE#         2448
  C:448AH         LINE#         2449
  C:44B5H         LINE#         2450
  C:44B8H         LINE#         2451
  C:44B8H         LINE#         2453
  C:44B8H         LINE#         2454
  C:44B8H         LINE#         2456
  C:44BFH         LINE#         2457
  C:44BFH         LINE#         2458
  C:44C3H         LINE#         2459
  C:44E4H         LINE#         2460
  C:44E6H         LINE#         2462
  C:44E6H         LINE#         2463
  C:4505H         LINE#         2464
  C:4549H         LINE#         2465
  C:4549H         LINE#         2467
  C:4592H         LINE#         2468
  C:45BAH         LINE#         2469
  C:460BH         LINE#         2470
  C:4636H         LINE#         2471
  C:465EH         LINE#         2472
  C:4687H         LINE#         2473
  C:468AH         LINE#         2474
  C:468AH         LINE#         2476
  C:468AH         LINE#         2477
  C:468AH         LINE#         2479
  C:4691H         LINE#         2480
  C:4691H         LINE#         2481
  C:4695H         LINE#         2482
  C:46B6H         LINE#         2483
  C:46B8H         LINE#         2485
  C:46B8H         LINE#         2486
  C:46D7H         LINE#         2487
  C:471BH         LINE#         2488
  C:471BH         LINE#         2490
  C:4764H         LINE#         2491
  C:478CH         LINE#         2492
BL51 BANKED LINKER/LOCATER V6.22.2.0                                                  01/14/2022  09:01:27  PAGE 71


  C:47DDH         LINE#         2493
  C:4808H         LINE#         2494
  C:4830H         LINE#         2495
  C:485DH         LINE#         2496
  C:4860H         LINE#         2497
  C:4860H         LINE#         2499
  C:4860H         LINE#         2500
  C:4860H         LINE#         2502
  C:4867H         LINE#         2503
  C:4867H         LINE#         2504
  C:486BH         LINE#         2505
  C:488CH         LINE#         2506
  C:488EH         LINE#         2508
  C:488EH         LINE#         2509
  C:48ADH         LINE#         2510
  C:48F1H         LINE#         2511
  C:48F1H         LINE#         2513
  C:493AH         LINE#         2514
  C:4962H         LINE#         2515
  C:49B3H         LINE#         2516
  C:49DEH         LINE#         2517
  C:4A06H         LINE#         2518
  C:4A33H         LINE#         2519
  C:4A36H         LINE#         2520
  C:4A36H         LINE#         2522
  C:4A36H         LINE#         2523
  C:4A36H         LINE#         2526
  C:4A3DH         LINE#         2527
  C:4A3DH         LINE#         2528
  C:4A43H         LINE#         2529
  C:4A64H         LINE#         2530
  C:4A66H         LINE#         2532
  C:4A66H         LINE#         2533
  C:4A87H         LINE#         2534
  C:4ACDH         LINE#         2535
  C:4ACDH         LINE#         2537
  C:4B18H         LINE#         2538
  C:4B42H         LINE#         2539
  C:4B95H         LINE#         2540
  C:4BC2H         LINE#         2541
  C:4BECH         LINE#         2542
  C:4C1BH         LINE#         2543
  C:4C1BH         LINE#         2544
  C:4C1BH         LINE#         2545
  C:4C1BH         LINE#         2547
  C:4C1EH         LINE#         2548
  C:4C1EH         LINE#         2549
  C:4C26H         LINE#         2550
  C:4C2EH         LINE#         2551
  C:4C2EH         LINE#         2553
  C:4C31H         LINE#         2554
  C:4C39H         LINE#         2555
  -------         ENDPROC       MODE8_SJ_R
  -------         PROC          MODE9_SJ_R
  C:8B2CH         LINE#         2557
  C:8B2CH         LINE#         2558
  C:8B2CH         LINE#         2559
BL51 BANKED LINKER/LOCATER V6.22.2.0                                                  01/14/2022  09:01:27  PAGE 72


  C:8B37H         LINE#         2561
  C:8B53H         LINE#         2563
  C:8B77H         LINE#         2564
  C:8B7FH         LINE#         2565
  C:8BA3H         LINE#         2566
  C:8BCEH         LINE#         2567
  C:8BD4H         LINE#         2568
  C:8BF7H         LINE#         2569
  C:8C1AH         LINE#         2573
  C:8C1DH         LINE#         2574
  C:8C25H         LINE#         2576
  C:8C28H         LINE#         2577
  C:8C28H         LINE#         2578
  C:8C30H         LINE#         2579
  C:8C38H         LINE#         2580
  C:8C38H         LINE#         2581
  -------         ENDPROC       MODE9_SJ_R
  -------         PROC          MODE9_SJ_G
  C:A6E7H         LINE#         2584
  C:A6E7H         LINE#         2585
  C:A6E7H         LINE#         2586
  C:A6EAH         LINE#         2587
  C:A6EAH         LINE#         2588
  C:A6F2H         LINE#         2589
  C:A6FAH         LINE#         2591
  C:A6FAH         LINE#         2592
  -------         ENDPROC       MODE9_SJ_G
  -------         PROC          MODE10_SJ_G
  C:A64EH         LINE#         2593
  C:A64EH         LINE#         2594
  C:A64EH         LINE#         2597
  C:A651H         LINE#         2598
  C:A651H         LINE#         2600
  C:A659H         LINE#         2601
  C:A661H         LINE#         2603
  C:A662H         LINE#         2605
  C:A665H         LINE#         2607
  -------         ENDPROC       MODE10_SJ_G
  -------         PROC          MODE10_SJ_R
  -------         DO            
  D:0006H         SYMBOL        row3
  D:0007H         SYMBOL        row4
  -------         ENDDO         
  C:8633H         LINE#         2609
  C:8633H         LINE#         2610
  C:8633H         LINE#         2614
  C:8638H         LINE#         2615
  C:863AH         LINE#         2617
  C:8641H         LINE#         2618
  C:8647H         LINE#         2620
  C:8647H         LINE#         2621
  C:8664H         LINE#         2622
  C:8681H         LINE#         2623
  C:8681H         LINE#         2625
  C:86C9H         LINE#         2626
  C:86D1H         LINE#         2627
  C:86F8H         LINE#         2628
BL51 BANKED LINKER/LOCATER V6.22.2.0                                                  01/14/2022  09:01:27  PAGE 73


  C:8721H         LINE#         2629
  C:8742H         LINE#         2630
  C:875FH         LINE#         2633
  C:8762H         LINE#         2634
  C:8762H         LINE#         2635
  C:876AH         LINE#         2636
  C:8772H         LINE#         2637
  C:8772H         LINE#         2639
  C:8775H         LINE#         2640
  C:877DH         LINE#         2641
  -------         ENDPROC       MODE10_SJ_R
  -------         PROC          MODE11_SJ_G
  C:A666H         LINE#         2643
  C:A666H         LINE#         2644
  C:A666H         LINE#         2647
  C:A669H         LINE#         2648
  C:A669H         LINE#         2650
  C:A671H         LINE#         2651
  C:A679H         LINE#         2653
  C:A67AH         LINE#         2655
  C:A67DH         LINE#         2657
  -------         ENDPROC       MODE11_SJ_G
  -------         PROC          MODE11_SJ_R
  -------         DO            
  D:0006H         SYMBOL        row3
  D:0007H         SYMBOL        row4
  -------         ENDDO         
  C:877EH         LINE#         2659
  C:877EH         LINE#         2660
  C:877EH         LINE#         2664
  C:8783H         LINE#         2665
  C:8785H         LINE#         2667
  C:878CH         LINE#         2668
  C:8792H         LINE#         2670
  C:8792H         LINE#         2671
  C:87AFH         LINE#         2672
  C:87CCH         LINE#         2673
  C:87CCH         LINE#         2675
  C:8814H         LINE#         2676
  C:881CH         LINE#         2677
  C:8843H         LINE#         2678
  C:886CH         LINE#         2679
  C:888DH         LINE#         2680
  C:88AAH         LINE#         2683
  C:88ADH         LINE#         2684
  C:88ADH         LINE#         2685
  C:88B5H         LINE#         2686
  C:88BDH         LINE#         2687
  C:88BDH         LINE#         2689
  C:88BDH         LINE#         2692
  C:88BDH         LINE#         2694
  C:88C0H         LINE#         2695
  C:88C8H         LINE#         2696
  -------         ENDPROC       MODE11_SJ_R
  -------         PROC          MODE8_RQ_G
  -------         DO            
  D:0006H         SYMBOL        row1
BL51 BANKED LINKER/LOCATER V6.22.2.0                                                  01/14/2022  09:01:27  PAGE 74


  D:0007H         SYMBOL        row2
  -------         ENDDO         
  C:97DDH         LINE#         2700
  C:97DDH         LINE#         2701
  C:97DDH         LINE#         2702
  C:97E2H         LINE#         2703
  C:97E4H         LINE#         2705
  C:97EFH         LINE#         2707
  C:980BH         LINE#         2709
  C:982AH         LINE#         2710
  C:9831H         LINE#         2711
  C:9835H         LINE#         2712
  C:9854H         LINE#         2713
  C:9873H         LINE#         2714
  C:987AH         LINE#         2715
  C:987EH         LINE#         2716
  -------         ENDPROC       MODE8_RQ_G
  -------         PROC          MODE8_NL_G
  -------         DO            
  D:0006H         SYMBOL        row1
  D:0007H         SYMBOL        row2
  -------         ENDDO         
  C:9464H         LINE#         2718
  C:9464H         LINE#         2719
  C:9464H         LINE#         2720
  C:9469H         LINE#         2721
  C:946BH         LINE#         2723
  C:948BH         LINE#         2724
  C:94A8H         LINE#         2725
  C:94AFH         LINE#         2726
  C:94B3H         LINE#         2727
  C:94D3H         LINE#         2728
  C:94EFH         LINE#         2729
  C:9510H         LINE#         2730
  C:952DH         LINE#         2732
  -------         ENDPROC       MODE8_NL_G
  -------         PROC          MODE8_XQ_G
  -------         DO            
  D:0006H         SYMBOL        row1
  D:0007H         SYMBOL        row2
  -------         ENDDO         
  C:95E2H         LINE#         2735
  C:95E2H         LINE#         2736
  C:95E2H         LINE#         2737
  C:95E7H         LINE#         2738
  C:95E9H         LINE#         2740
  C:95F0H         LINE#         2741
  C:95F4H         LINE#         2742
  C:9615H         LINE#         2743
  C:9632H         LINE#         2744
  C:9656H         LINE#         2745
  C:9683H         LINE#         2746
  C:968AH         LINE#         2747
  C:9692H         LINE#         2748
  -------         ENDPROC       MODE8_XQ_G
  -------         PROC          MODE8_XQ_R
  C:A087H         LINE#         2751
BL51 BANKED LINKER/LOCATER V6.22.2.0                                                  01/14/2022  09:01:27  PAGE 75


  C:A087H         LINE#         2752
  C:A087H         LINE#         2754
  C:A0ABH         LINE#         2755
  C:A0D8H         LINE#         2756
  C:A0DFH         LINE#         2758
  -------         ENDPROC       MODE8_XQ_R
  -------         PROC          MODESLEEP_R
  C:9101H         LINE#         2761
  C:9101H         LINE#         2762
  C:9101H         LINE#         2763
  C:9104H         LINE#         2764
  C:910CH         LINE#         2766
  C:9112H         LINE#         2767
  C:912DH         LINE#         2769
  C:914CH         LINE#         2771
  C:914FH         LINE#         2772
  C:9157H         LINE#         2774
  C:9176H         LINE#         2775
  C:9195H         LINE#         2777
  C:91B4H         LINE#         2778
  C:91D3H         LINE#         2779
  C:91DFH         LINE#         2780
  C:91E5H         LINE#         2782
  -------         ENDPROC       MODESLEEP_R
  -------         PROC          UARTINIT
  C:A79CH         LINE#         2784
  C:A79CH         LINE#         2785
  C:A79CH         LINE#         2786
  C:A79FH         LINE#         2787
  C:A7A2H         LINE#         2788
  C:A7A5H         LINE#         2790
  C:A7A8H         LINE#         2791
  C:A7ABH         LINE#         2793
  -------         ENDPROC       UARTINIT
  -------         PROC          LOADDATA_G
  C:88C9H         LINE#         2796
  C:88C9H         LINE#         2797
  C:88C9H         LINE#         2799
  C:890BH         LINE#         2800
  C:890BH         LINE#         2801
  C:890BH         LINE#         2802
  C:8911H         LINE#         2803
  C:8911H         LINE#         2804
  C:8947H         LINE#         2805
  C:8947H         LINE#         2806
  C:8947H         LINE#         2807
  C:894AH         LINE#         2808
  C:894DH         LINE#         2809
  C:894DH         LINE#         2811
  C:894DH         LINE#         2812
  C:8950H         LINE#         2813
  C:8950H         LINE#         2815
  C:8950H         LINE#         2816
  C:8953H         LINE#         2817
  C:8956H         LINE#         2818
  C:8956H         LINE#         2820
  C:8956H         LINE#         2821
BL51 BANKED LINKER/LOCATER V6.22.2.0                                                  01/14/2022  09:01:27  PAGE 76


  C:8959H         LINE#         2822
  C:895CH         LINE#         2823
  C:895CH         LINE#         2825
  C:895CH         LINE#         2826
  C:895FH         LINE#         2827
  C:8962H         LINE#         2828
  C:8962H         LINE#         2830
  C:8962H         LINE#         2831
  C:8965H         LINE#         2832
  C:8968H         LINE#         2833
  C:8968H         LINE#         2835
  C:8968H         LINE#         2836
  C:896BH         LINE#         2837
  C:896EH         LINE#         2838
  C:896EH         LINE#         2840
  C:896EH         LINE#         2841
  C:8971H         LINE#         2842
  C:8974H         LINE#         2843
  C:8974H         LINE#         2845
  C:8974H         LINE#         2846
  C:8977H         LINE#         2848
  C:8981H         LINE#         2849
  C:8983H         LINE#         2850
  C:8989H         LINE#         2851
  C:898BH         LINE#         2857
  C:898BH         LINE#         2858
  C:898EH         LINE#         2860
  C:8998H         LINE#         2861
  C:899AH         LINE#         2862
  C:89A0H         LINE#         2863
  C:89A2H         LINE#         2865
  C:89A2H         LINE#         2867
  C:89A4H         LINE#         2869
  C:89A4H         LINE#         2870
  C:89A7H         LINE#         2872
  C:89B1H         LINE#         2873
  C:89B3H         LINE#         2874
  C:89B9H         LINE#         2875
  C:89BBH         LINE#         2877
  C:89BBH         LINE#         2879
  C:89BDH         LINE#         2881
  C:89BDH         LINE#         2882
  C:89C0H         LINE#         2884
  C:89CAH         LINE#         2885
  C:89CDH         LINE#         2886
  C:89D3H         LINE#         2887
  C:89D6H         LINE#         2889
  C:89D9H         LINE#         2891
  C:89D9H         LINE#         2892
  C:89D9H         LINE#         2893
  C:89D9H         LINE#         2895
  C:89DEH         LINE#         2897
  C:89DEH         LINE#         2899
  C:89DEH         LINE#         2900
  C:89E1H         LINE#         2901
  C:89E1H         LINE#         2903
  C:89E1H         LINE#         2904
BL51 BANKED LINKER/LOCATER V6.22.2.0                                                  01/14/2022  09:01:27  PAGE 77


  C:89E4H         LINE#         2905
  C:89E4H         LINE#         2907
  C:89E4H         LINE#         2908
  C:89E7H         LINE#         2909
  C:89E7H         LINE#         2911
  C:89E7H         LINE#         2912
  C:89EAH         LINE#         2913
  C:89EAH         LINE#         2915
  C:89EAH         LINE#         2916
  C:89EDH         LINE#         2917
  C:89EDH         LINE#         2919
  C:89EDH         LINE#         2920
  C:89F0H         LINE#         2921
  C:89F0H         LINE#         2923
  C:89F0H         LINE#         2924
  C:89F3H         LINE#         2925
  C:89F3H         LINE#         2927
  C:89F3H         LINE#         2928
  C:89F6H         LINE#         2929
  C:89F6H         LINE#         2931
  C:89F6H         LINE#         2932
  C:89F9H         LINE#         2933
  C:89F9H         LINE#         2935
  C:89F9H         LINE#         2936
  C:89FCH         LINE#         2937
  C:89FCH         LINE#         2939
  C:89FCH         LINE#         2940
  C:89FFH         LINE#         2941
  C:89FFH         LINE#         2943
  C:89FFH         LINE#         2944
  C:89FFH         LINE#         2945
  C:89FFH         LINE#         2946
  C:89FFH         LINE#         2947
  C:8A02H         LINE#         2948
  C:8A02H         LINE#         2949
  C:8A02H         LINE#         2950
  -------         ENDPROC       LOADDATA_G
  -------         PROC          LOADDATA_R
  C:8C39H         LINE#         2953
  C:8C39H         LINE#         2954
  C:8C39H         LINE#         2956
  C:8C7BH         LINE#         2957
  C:8C7BH         LINE#         2958
  C:8C7BH         LINE#         2959
  C:8C81H         LINE#         2960
  C:8C81H         LINE#         2961
  C:8CB7H         LINE#         2962
  C:8CB7H         LINE#         2963
  C:8CB7H         LINE#         2964
  C:8CBAH         LINE#         2965
  C:8CBAH         LINE#         2967
  C:8CBAH         LINE#         2968
  C:8CBDH         LINE#         2969
  C:8CBDH         LINE#         2971
  C:8CBDH         LINE#         2972
  C:8CC0H         LINE#         2973
  C:8CC3H         LINE#         2974
BL51 BANKED LINKER/LOCATER V6.22.2.0                                                  01/14/2022  09:01:27  PAGE 78


  C:8CC3H         LINE#         2976
  C:8CC3H         LINE#         2977
  C:8CC6H         LINE#         2978
  C:8CC9H         LINE#         2979
  C:8CC9H         LINE#         2981
  C:8CC9H         LINE#         2982
  C:8CCCH         LINE#         2983
  C:8CCFH         LINE#         2984
  C:8CCFH         LINE#         2986
  C:8CCFH         LINE#         2987
  C:8CD2H         LINE#         2988
  C:8CD5H         LINE#         2989
  C:8CD5H         LINE#         2991
  C:8CD5H         LINE#         2992
  C:8CD8H         LINE#         2993
  C:8CDBH         LINE#         2994
  C:8CDBH         LINE#         2996
  C:8CDBH         LINE#         2997
  C:8CDEH         LINE#         2998
  C:8CE1H         LINE#         2999
  C:8CE1H         LINE#         3001
  C:8CE1H         LINE#         3002
  C:8CE4H         LINE#         3004
  C:8CEDH         LINE#         3005
  C:8CEDH         LINE#         3007
  C:8CEFH         LINE#         3009
  C:8CEFH         LINE#         3010
  C:8CF2H         LINE#         3012
  C:8CFBH         LINE#         3013
  C:8CFBH         LINE#         3015
  C:8CFDH         LINE#         3017
  C:8CFDH         LINE#         3018
  C:8D00H         LINE#         3020
  C:8D09H         LINE#         3021
  C:8D09H         LINE#         3023
  C:8D0BH         LINE#         3025
  C:8D0BH         LINE#         3026
  C:8D0EH         LINE#         3028
  C:8D17H         LINE#         3029
  C:8D1AH         LINE#         3031
  C:8D1AH         LINE#         3033
  C:8D1AH         LINE#         3034
  C:8D1AH         LINE#         3036
  C:8D1DH         LINE#         3038
  C:8D1DH         LINE#         3040
  C:8D1DH         LINE#         3041
  C:8D20H         LINE#         3042
  C:8D20H         LINE#         3044
  C:8D20H         LINE#         3045
  C:8D23H         LINE#         3046
  C:8D23H         LINE#         3048
  C:8D23H         LINE#         3049
  C:8D26H         LINE#         3050
  C:8D26H         LINE#         3052
  C:8D26H         LINE#         3053
  C:8D29H         LINE#         3054
  C:8D29H         LINE#         3056
BL51 BANKED LINKER/LOCATER V6.22.2.0                                                  01/14/2022  09:01:27  PAGE 79


  C:8D29H         LINE#         3057
  C:8D2CH         LINE#         3058
  C:8D2CH         LINE#         3060
  C:8D2CH         LINE#         3061
  C:8D2FH         LINE#         3062
  C:8D2FH         LINE#         3064
  C:8D2FH         LINE#         3065
  C:8D32H         LINE#         3066
  C:8D32H         LINE#         3068
  C:8D32H         LINE#         3069
  C:8D35H         LINE#         3070
  C:8D35H         LINE#         3072
  C:8D35H         LINE#         3073
  C:8D38H         LINE#         3074
  C:8D38H         LINE#         3076
  C:8D38H         LINE#         3077
  C:8D3BH         LINE#         3078
  C:8D3BH         LINE#         3080
  C:8D3BH         LINE#         3081
  C:8D3EH         LINE#         3082
  C:8D3EH         LINE#         3084
  C:8D3EH         LINE#         3085
  C:8D3EH         LINE#         3086
  C:8D3EH         LINE#         3087
  C:8D3EH         LINE#         3088
  C:8D41H         LINE#         3089
  C:8D41H         LINE#         3090
  C:8D41H         LINE#         3091
  -------         ENDPROC       LOADDATA_R
  -------         PROC          SENDDATA_G
  -------         DO            
  D:0007H         SYMBOL        i
  D:0006H         SYMBOL        j
  -------         ENDDO         
  C:A136H         LINE#         3093
  C:A136H         LINE#         3094
  C:A136H         LINE#         3097
  C:A138H         LINE#         3098
  C:A138H         LINE#         3100
  C:A13AH         LINE#         3101
  C:A13CH         LINE#         3103
  C:A13EH         LINE#         3104
  C:A13EH         LINE#         3106
  C:A14AH         LINE#         3107
  C:A14CH         LINE#         3108
  C:A159H         LINE#         3109
  C:A15BH         LINE#         3110
  C:A15DH         LINE#         3111
  C:A161H         LINE#         3112
  C:A163H         LINE#         3113
  C:A168H         LINE#         3132
  C:A16DH         LINE#         3135
  C:A172H         LINE#         3136
  C:A174H         LINE#         3137
  C:A178H         LINE#         3138
  C:A17AH         LINE#         3139
  C:A17CH         LINE#         3140
BL51 BANKED LINKER/LOCATER V6.22.2.0                                                  01/14/2022  09:01:27  PAGE 80


  C:A181H         LINE#         3141
  C:A186H         LINE#         3142
  C:A188H         LINE#         3143
  -------         ENDPROC       SENDDATA_G
  -------         PROC          SENDDATA_R
  -------         DO            
  D:0007H         SYMBOL        i
  D:0006H         SYMBOL        j
  -------         ENDDO         
  C:A189H         LINE#         3146
  C:A189H         LINE#         3147
  C:A189H         LINE#         3150
  C:A18BH         LINE#         3151
  C:A18BH         LINE#         3153
  C:A18DH         LINE#         3154
  C:A18FH         LINE#         3156
  C:A191H         LINE#         3157
  C:A191H         LINE#         3159
  C:A19DH         LINE#         3160
  C:A19FH         LINE#         3161
  C:A1ACH         LINE#         3162
  C:A1AEH         LINE#         3163
  C:A1B0H         LINE#         3164
  C:A1B4H         LINE#         3165
  C:A1B6H         LINE#         3166
  C:A1BBH         LINE#         3205
  C:A1C0H         LINE#         3208
  C:A1C5H         LINE#         3209
  C:A1C7H         LINE#         3210
  C:A1CBH         LINE#         3211
  C:A1CDH         LINE#         3212
  C:A1CFH         LINE#         3214
  C:A1D4H         LINE#         3215
  C:A1D9H         LINE#         3216
  C:A1DBH         LINE#         3219
  -------         ENDPROC       SENDDATA_R
  -------         PROC          SENDDATE_RGB
  -------         DO            
  D:0007H         SYMBOL        i
  D:0006H         SYMBOL        j
  -------         ENDDO         
  C:9C8CH         LINE#         3220
  C:9C8CH         LINE#         3221
  C:9C8CH         LINE#         3224
  C:9C8EH         LINE#         3225
  C:9C8EH         LINE#         3226
  C:9C90H         LINE#         3227
  C:9C90H         LINE#         3229
  C:9C9CH         LINE#         3230
  C:9C9EH         LINE#         3231
  C:9CAAH         LINE#         3232
  C:9CACH         LINE#         3233
  C:9CB8H         LINE#         3234
  C:9CBAH         LINE#         3235
  C:9CC6H         LINE#         3236
  C:9CC8H         LINE#         3237
  C:9CD4H         LINE#         3238
BL51 BANKED LINKER/LOCATER V6.22.2.0                                                  01/14/2022  09:01:27  PAGE 81


  C:9CD6H         LINE#         3239
  C:9CE3H         LINE#         3240
  C:9CE5H         LINE#         3241
  C:9CE7H         LINE#         3242
  C:9CEBH         LINE#         3243
  C:9CEDH         LINE#         3261
  C:9CF2H         LINE#         3262
  C:9CF8H         LINE#         3264
  C:9CFDH         LINE#         3265
  C:9CFFH         LINE#         3266
  C:9D03H         LINE#         3267
  C:9D05H         LINE#         3268
  C:9D07H         LINE#         3270
  C:9D0CH         LINE#         3271
  C:9D11H         LINE#         3272
  C:9D13H         LINE#         3275
  -------         ENDPROC       SENDDATE_RGB
  -------         PROC          ERR3231
  C:91E6H         LINE#         3277
  C:91E6H         LINE#         3278
  C:91E6H         LINE#         3280
  C:91E9H         LINE#         3281
  C:91E9H         LINE#         3282
  C:91F1H         LINE#         3283
  C:91F9H         LINE#         3284
  C:9202H         LINE#         3285
  C:920AH         LINE#         3286
  C:920CH         LINE#         3287
  C:9214H         LINE#         3290
  C:9228H         LINE#         3291
  C:923CH         LINE#         3292
  C:9250H         LINE#         3293
  C:9264H         LINE#         3294
  C:9278H         LINE#         3295
  C:928CH         LINE#         3296
  C:92A0H         LINE#         3297
  C:92B4H         LINE#         3299
  C:92B7H         LINE#         3300
  C:92BAH         LINE#         3301
  C:92C6H         LINE#         3303
  -------         ENDPROC       ERR3231
  -------         PROC          XIANSHI
  C:A695H         LINE#         3305
  C:A695H         LINE#         3306
  C:A695H         LINE#         3309
  C:A698H         LINE#         3310
  C:A698H         LINE#         3311
  C:A69BH         LINE#         3313
  C:A69EH         LINE#         3316
  C:A6A1H         LINE#         3317
  C:A6AAH         LINE#         3318
  -------         ENDPROC       XIANSHI
  -------         PROC          TIM0
  C:0003H         LINE#         3321
  C:0003H         LINE#         3324
  C:0005H         LINE#         3325
  C:0007H         LINE#         3326
BL51 BANKED LINKER/LOCATER V6.22.2.0                                                  01/14/2022  09:01:27  PAGE 82


  C:000AH         LINE#         3327
  -------         ENDPROC       TIM0
  -------         PROC          _SETTIME
  D:0004H         SYMBOL        address
  D:0002H         SYMBOL        min
  D:0003H         SYMBOL        max
  -------         DO            
  D:0006H         SYMBOL        item
  -------         ENDDO         
  C:9F63H         LINE#         3329
  C:9F67H         LINE#         3330
  C:9F67H         LINE#         3333
  C:9F6CH         LINE#         3334
  C:9F84H         LINE#         3336
  C:9F87H         LINE#         3337
  C:9F8AH         LINE#         3339
  C:9F8BH         LINE#         3341
  C:9F96H         LINE#         3342
  C:9F98H         LINE#         3344
  C:9FA3H         LINE#         3345
  C:9FA7H         LINE#         3347
  C:9FC3H         LINE#         3348
  -------         ENDPROC       _SETTIME
  -------         PROC          IR_ICON
  C:9B77H         LINE#         3352
  C:9B77H         LINE#         3353
  C:9B77H         LINE#         3354
  C:9B80H         LINE#         3355
  C:9B80H         LINE#         3356
  C:9B89H         LINE#         3357
  C:9B89H         LINE#         3358
  C:9B91H         LINE#         3359
  C:9B91H         LINE#         3360
  C:9B96H         LINE#         3361
  C:9B96H         LINE#         3362
  C:9B98H         LINE#         3363
  C:9B9BH         LINE#         3364
  C:9B9BH         LINE#         3366
  C:9BA3H         LINE#         3367
  C:9BA3H         LINE#         3368
  C:9BA5H         LINE#         3369
  C:9BA9H         LINE#         3370
  C:9BA9H         LINE#         3372
  C:9BB1H         LINE#         3373
  C:9BB1H         LINE#         3374
  C:9BB3H         LINE#         3375
  C:9BB7H         LINE#         3376
  C:9BB7H         LINE#         3378
  C:9BBFH         LINE#         3379
  C:9BBFH         LINE#         3380
  C:9BC1H         LINE#         3381
  C:9BC4H         LINE#         3382
  C:9BC4H         LINE#         3383
  C:9BC4H         LINE#         3395
  C:9BC6H         LINE#         3397
  C:9BC6H         LINE#         3398
  C:9BC9H         LINE#         3399
BL51 BANKED LINKER/LOCATER V6.22.2.0                                                  01/14/2022  09:01:27  PAGE 83


  C:9BC9H         LINE#         3400
  C:9BD8H         LINE#         3401
  C:9BD8H         LINE#         3402
  C:9BD8H         LINE#         3403
  C:9BDEH         LINE#         3404
  C:9BE3H         LINE#         3406
  C:9BE3H         LINE#         3407
  C:9BE3H         LINE#         3408
  C:9BE5H         LINE#         3410
  C:9BE5H         LINE#         3411
  C:9BEAH         LINE#         3413
  C:9BEAH         LINE#         3414
  C:9BEAH         LINE#         3415
  C:9BECH         LINE#         3417
  C:9BECH         LINE#         3418
  C:9BF1H         LINE#         3420
  C:9BF1H         LINE#         3421
  C:9BF1H         LINE#         3422
  C:9BF3H         LINE#         3424
  C:9BF3H         LINE#         3425
  C:9BF9H         LINE#         3427
  C:9BFCH         LINE#         3428
  C:9BFEH         LINE#         3429
  C:9BFEH         LINE#         3431
  C:9BFEH         LINE#         3432
  C:9BFEH         LINE#         3434
  C:9BFEH         LINE#         3435
  C:9BFEH         LINE#         3436
  C:9BFEH         LINE#         3438
  C:9C02H         LINE#         3439
  C:9C02H         LINE#         3440
  -------         ENDPROC       IR_ICON
  -------         PROC          KEYSCAN
  -------         DO            
  B:0020H.0       SYMBOL        KeySet_S
  B:0020H.1       SYMBOL        KeyAdd_S
  B:0020H.2       SYMBOL        KeyDec_S
  B:0020H.3       SYMBOL        KeyEsc_S
  I:0057H         SYMBOL        Keyout
  I:0059H         SYMBOL        SaveTime
  -------         ENDDO         
  C:75FAH         LINE#         3442
  C:75FAH         LINE#         3443
  C:75FAH         LINE#         3450
  C:75FDH         LINE#         3451
  C:75FFH         LINE#         3453
  C:7605H         LINE#         3454
  C:7605H         LINE#         3455
  C:7608H         LINE#         3457
  C:760BH         LINE#         3458
  C:760BH         LINE#         3459
  C:760DH         LINE#         3460
  C:760FH         LINE#         3461
  C:7615H         LINE#         3462
  C:7615H         LINE#         3463
  C:7615H         LINE#         3465
  C:7618H         LINE#         3466
BL51 BANKED LINKER/LOCATER V6.22.2.0                                                  01/14/2022  09:01:27  PAGE 84


  C:761AH         LINE#         3468
  C:7620H         LINE#         3469
  C:7620H         LINE#         3470
  C:7623H         LINE#         3472
  C:7626H         LINE#         3473
  C:7626H         LINE#         3474
  C:7628H         LINE#         3475
  C:762AH         LINE#         3476
  C:7630H         LINE#         3477
  C:7630H         LINE#         3478
  C:7630H         LINE#         3480
  C:7633H         LINE#         3481
  C:7635H         LINE#         3483
  C:763BH         LINE#         3484
  C:763BH         LINE#         3485
  C:763EH         LINE#         3487
  C:7641H         LINE#         3488
  C:7641H         LINE#         3489
  C:7643H         LINE#         3490
  C:7645H         LINE#         3491
  C:764BH         LINE#         3492
  C:764BH         LINE#         3493
  C:764BH         LINE#         3495
  C:764EH         LINE#         3496
  C:7650H         LINE#         3498
  C:7656H         LINE#         3499
  C:7656H         LINE#         3500
  C:7659H         LINE#         3502
  C:765CH         LINE#         3503
  C:765CH         LINE#         3504
  C:765EH         LINE#         3505
  C:7660H         LINE#         3506
  C:7666H         LINE#         3508
  C:7666H         LINE#         3509
  C:7666H         LINE#         3511
  C:7669H         LINE#         3513
  C:766CH         LINE#         3514
  C:766CH         LINE#         3515
  C:7673H         LINE#         3516
  C:7675H         LINE#         3518
  C:7678H         LINE#         3520
  C:767EH         LINE#         3521
  C:7680H         LINE#         3524
  C:7682H         LINE#         3525
  C:7684H         LINE#         3526
  C:7684H         LINE#         3528
  C:7689H         LINE#         3529
  C:7689H         LINE#         3530
  C:7691H         LINE#         3532
  C:769DH         LINE#         3533
  C:76A4H         LINE#         3534
  C:76A4H         LINE#         3536
  C:76AAH         LINE#         3537
  C:76AAH         LINE#         3538
  C:76ABH         LINE#         3539
  C:76ABH         LINE#         3541
  C:76B4H         LINE#         3542
BL51 BANKED LINKER/LOCATER V6.22.2.0                                                  01/14/2022  09:01:27  PAGE 85


  C:76B4H         LINE#         3543
  C:76BBH         LINE#         3544
  C:76BDH         LINE#         3546
  C:76F3H         LINE#         3547
  C:76F3H         LINE#         3548
  C:76F3H         LINE#         3549
  C:76F6H         LINE#         3550
  C:76F6H         LINE#         3551
  C:76F9H         LINE#         3553
  C:7702H         LINE#         3554
  C:7704H         LINE#         3556
  C:7707H         LINE#         3558
  C:7707H         LINE#         3559
  C:7709H         LINE#         3560
  C:770CH         LINE#         3561
  C:770CH         LINE#         3563
  C:770FH         LINE#         3565
  C:770FH         LINE#         3566
  C:7715H         LINE#         3567
  C:7717H         LINE#         3569
  C:7717H         LINE#         3570
  C:771DH         LINE#         3571
  C:771FH         LINE#         3573
  C:771FH         LINE#         3574
  C:7725H         LINE#         3575
  C:7727H         LINE#         3577
  C:7727H         LINE#         3578
  C:772DH         LINE#         3579
  C:772FH         LINE#         3581
  C:772FH         LINE#         3582
  C:7735H         LINE#         3583
  C:7737H         LINE#         3585
  C:7737H         LINE#         3586
  C:773FH         LINE#         3587
  C:7742H         LINE#         3589
  C:7742H         LINE#         3590
  C:774AH         LINE#         3591
  C:774BH         LINE#         3593
  C:7757H         LINE#         3595
  C:7763H         LINE#         3597
  C:7765H         LINE#         3599
  C:7765H         LINE#         3600
  C:776DH         LINE#         3601
  C:776EH         LINE#         3603
  C:777AH         LINE#         3605
  C:7786H         LINE#         3607
  C:7788H         LINE#         3609
  C:7788H         LINE#         3610
  C:7790H         LINE#         3611
  C:7791H         LINE#         3613
  C:779DH         LINE#         3615
  C:77A9H         LINE#         3617
  C:77ABH         LINE#         3619
  C:77ABH         LINE#         3620
  C:77B3H         LINE#         3621
  C:77B4H         LINE#         3623
  C:77BEH         LINE#         3625
BL51 BANKED LINKER/LOCATER V6.22.2.0                                                  01/14/2022  09:01:27  PAGE 86


  C:77C8H         LINE#         3627
  C:77CAH         LINE#         3629
  C:77CAH         LINE#         3630
  C:77CCH         LINE#         3633
  C:77CCH         LINE#         3634
  C:77CCH         LINE#         3635
  C:77CCH         LINE#         3637
  C:77CEH         LINE#         3638
  C:77D0H         LINE#         3639
  C:77D0H         LINE#         3641
  C:77D3H         LINE#         3642
  C:77D3H         LINE#         3644
  C:77D8H         LINE#         3645
  C:77D8H         LINE#         3647
  C:77DBH         LINE#         3649
  C:77E3H         LINE#         3651
  C:77EAH         LINE#         3652
  C:77ECH         LINE#         3654
  C:77EEH         LINE#         3656
  C:77EEH         LINE#         3657
  C:77F2H         LINE#         3659
  C:77F2H         LINE#         3661
  C:77F4H         LINE#         3662
  C:77F4H         LINE#         3664
  C:7807H         LINE#         3666
  C:7811H         LINE#         3667
  C:7811H         LINE#         3668
  C:7813H         LINE#         3669
  C:7816H         LINE#         3670
  C:7818H         LINE#         3671
  C:781AH         LINE#         3672
  C:781AH         LINE#         3673
  -------         ENDPROC       KEYSCAN
  -------         PROC          MAIN
  -------         DO            
  I:007FH         SYMBOL        count
  I:0080H         SYMBOL        a
  I:0081H         SYMBOL        b
  -------         ENDDO         
  C:805DH         LINE#         3675
  C:805DH         LINE#         3676
  C:805DH         LINE#         3679
  C:8060H         LINE#         3680
  C:8063H         LINE#         3681
  C:8066H         LINE#         3682
  C:8068H         LINE#         3683
  C:806BH         LINE#         3684
  C:806DH         LINE#         3685
  C:8070H         LINE#         3686
  C:8072H         LINE#         3687
  C:8075H         LINE#         3690
  C:8078H         LINE#         3691
  C:807BH         LINE#         3693
  C:807DH         LINE#         3694
  C:807FH         LINE#         3695
  C:8081H         LINE#         3696
  C:8084H         LINE#         3697
BL51 BANKED LINKER/LOCATER V6.22.2.0                                                  01/14/2022  09:01:27  PAGE 87


  C:8087H         LINE#         3698
  C:808AH         LINE#         3699
  C:808DH         LINE#         3700
  C:808FH         LINE#         3701
  C:8091H         LINE#         3702
  C:8093H         LINE#         3703
  C:8095H         LINE#         3704
  C:8097H         LINE#         3705
  C:8099H         LINE#         3706
  C:809BH         LINE#         3707
  C:809DH         LINE#         3708
  C:809FH         LINE#         3710
  C:80A5H         LINE#         3711
  C:80A5H         LINE#         3712
  C:80AAH         LINE#         3714
  C:80B0H         LINE#         3715
  C:80B4H         LINE#         3717
  C:80B6H         LINE#         3718
  C:80B8H         LINE#         3720
  C:80BAH         LINE#         3722
  C:80BCH         LINE#         3723
  C:80BFH         LINE#         3725
  C:80C2H         LINE#         3726
  C:80C2H         LINE#         3727
  C:80C5H         LINE#         3729
  C:80C7H         LINE#         3730
  C:80CAH         LINE#         3731
  C:80CCH         LINE#         3733
  C:80CFH         LINE#         3735
  C:80D1H         LINE#         3736
  C:80D4H         LINE#         3737
  C:80D7H         LINE#         3740
  C:80D9H         LINE#         3741
  C:80DCH         LINE#         3743
  C:80DFH         LINE#         3744
  C:80DFH         LINE#         3745
  C:80E2H         LINE#         3747
  C:80E4H         LINE#         3748
  C:80E7H         LINE#         3749
  C:80E9H         LINE#         3751
  C:80ECH         LINE#         3753
  C:80F6H         LINE#         3754
  C:80F6H         LINE#         3755
  C:80F9H         LINE#         3756
  C:80FCH         LINE#         3757
  C:80FEH         LINE#         3759
  C:8100H         LINE#         3761
  C:810CH         LINE#         3762
  C:810CH         LINE#         3763
  C:8110H         LINE#         3764
  C:8112H         LINE#         3765
  C:8116H         LINE#         3766
  C:8118H         LINE#         3767
  C:811BH         LINE#         3768
  C:811EH         LINE#         3769
  C:8120H         LINE#         3770
  C:8123H         LINE#         3771
BL51 BANKED LINKER/LOCATER V6.22.2.0                                                  01/14/2022  09:01:27  PAGE 88


  C:8126H         LINE#         3773
  C:8128H         LINE#         3775
  C:8128H         LINE#         3777
  C:8133H         LINE#         3778
  C:813DH         LINE#         3779
  C:8146H         LINE#         3780
  C:814EH         LINE#         3781
  C:8157H         LINE#         3782
  C:8160H         LINE#         3783
  C:816AH         LINE#         3784
  C:8173H         LINE#         3786
  C:817DH         LINE#         3787
  C:817DH         LINE#         3789
  C:8180H         LINE#         3791
  C:8183H         LINE#         3792
  C:8186H         LINE#         3794
  C:8186H         LINE#         3795
  C:8186H         LINE#         3796
  C:8189H         LINE#         3798
  C:818FH         LINE#         3799
  C:818FH         LINE#         3800
  C:8191H         LINE#         3801
  C:8193H         LINE#         3802
  C:8195H         LINE#         3803
  C:8198H         LINE#         3804
  C:819BH         LINE#         3805
  C:819EH         LINE#         3807
  C:81A3H         LINE#         3808
  C:81A3H         LINE#         3809
  C:81ADH         LINE#         3810
  C:81ADH         LINE#         3811
  C:81AFH         LINE#         3812
  C:81B2H         LINE#         3814
  C:81BAH         LINE#         3815
  C:81BAH         LINE#         3817
  C:81BAH         LINE#         3819
  C:81C2H         LINE#         3820
  C:81C2H         LINE#         3821
  C:81C4H         LINE#         3822
  C:81C6H         LINE#         3823
  C:81C8H         LINE#         3824
  C:81CAH         LINE#         3826
  C:81D0H         LINE#         3827
  C:81D0H         LINE#         3828
  C:81D2H         LINE#         3831
  C:81D5H         LINE#         3832
  C:81D5H         LINE#         3833
  C:81D8H         LINE#         3835
  C:81DAH         LINE#         3836
  C:81DDH         LINE#         3837
  C:81DFH         LINE#         3839
  C:81E2H         LINE#         3840
  C:81E2H         LINE#         3841
  C:81E2H         LINE#         3842
  C:81E2H         LINE#         3845
  C:81E5H         LINE#         3846
  C:81E8H         LINE#         3847
BL51 BANKED LINKER/LOCATER V6.22.2.0                                                  01/14/2022  09:01:27  PAGE 89


  -------         ENDPROC       MAIN
  -------         PROC          INT1
  -------         DO            
  X:0000H         SYMBOL        a
  X:0001H         SYMBOL        b
  D:001FH         SYMBOL        temp
  -------         ENDDO         
  C:8D42H         LINE#         3851
  C:8D4DH         LINE#         3855
  C:8D4FH         LINE#         3856
  C:8D51H         LINE#         3857
  C:8D53H         LINE#         3858
  C:8D56H         LINE#         3859
  C:8D59H         LINE#         3860
  C:8D5BH         LINE#         3862
  C:8D6BH         LINE#         3863
  C:8D6BH         LINE#         3864
  C:8D6BH         LINE#         3865
  C:8D6FH         LINE#         3866
  C:8D76H         LINE#         3867
  C:8D79H         LINE#         3869
  C:8D79H         LINE#         3870
  C:8D85H         LINE#         3871
  C:8D87H         LINE#         3873
  C:8D8BH         LINE#         3875
  C:8D8EH         LINE#         3878
  C:8D8EH         LINE#         3879
  C:8D9AH         LINE#         3880
  C:8D9CH         LINE#         3882
  C:8D9CH         LINE#         3883
  C:8DADH         LINE#         3885
  C:8DB3H         LINE#         3886
  C:8DBDH         LINE#         3888
  C:8DC8H         LINE#         3890
  C:8DCEH         LINE#         3892
  C:8DD4H         LINE#         3893
  C:8DD4H         LINE#         3894
  C:8DDAH         LINE#         3895
  C:8DDDH         LINE#         3896
  C:8DDDH         LINE#         3898
  C:8DE6H         LINE#         3899
  C:8DE6H         LINE#         3900
  C:8DF1H         LINE#         3901
  C:8DF1H         LINE#         3902
  C:8DF5H         LINE#         3903
  C:8DF8H         LINE#         3904
  C:8DFBH         LINE#         3905
  C:8DFDH         LINE#         3907
  C:8E01H         LINE#         3908
  C:8E01H         LINE#         3909
  C:8E01H         LINE#         3911
  C:8E03H         LINE#         3913
  C:8E03H         LINE#         3914
  C:8E08H         LINE#         3915
  C:8E08H         LINE#         3916
  C:8E0AH         LINE#         3917
  C:8E0CH         LINE#         3918
BL51 BANKED LINKER/LOCATER V6.22.2.0                                                  01/14/2022  09:01:27  PAGE 90


  C:8E0CH         LINE#         3920
  C:8E14H         LINE#         3921
  C:8E14H         LINE#         3922
  C:8E16H         LINE#         3923
  C:8E1CH         LINE#         3924
  C:8E1CH         LINE#         3926
  C:8E1CH         LINE#         3927
  C:8E1CH         LINE#         3929
  C:8E22H         LINE#         3930
  C:8E22H         LINE#         3931
  C:8E24H         LINE#         3932
  C:8E27H         LINE#         3933
  C:8E29H         LINE#         3934
  C:8E2CH         LINE#         3935
  C:8E2FH         LINE#         3936
  C:8E2FH         LINE#         3938
  C:8E31H         LINE#         3939
  -------         ENDPROC       INT1
  -------         PROC          TIME1
  C:A409H         LINE#         3944
  C:A412H         LINE#         3946
  C:A414H         LINE#         3947
  C:A417H         LINE#         3949
  C:A425H         LINE#         3950
  C:A425H         LINE#         3951
  C:A429H         LINE#         3952
  C:A42CH         LINE#         3953
  C:A42EH         LINE#         3954
  C:A431H         LINE#         3955
  C:A434H         LINE#         3956
  C:A434H         LINE#         3957
  -------         ENDPROC       TIME1
  -------         PROC          ADC
  -------         DO            
  X:0038H         SYMBOL        ADC_temp
  X:0002H         SYMBOL        m
  X:0003H         SYMBOL        TO
  X:0005H         SYMBOL        max
  X:0007H         SYMBOL        min
  -------         ENDDO         
  C:7C40H         LINE#         3959
  C:7C4DH         LINE#         3968
  C:7C50H         LINE#         3970
  C:7C66H         LINE#         3972
  C:7C6CH         LINE#         3973
  C:7C82H         LINE#         3975
  C:7C98H         LINE#         3976
  C:7CA0H         LINE#         3978
  C:7CAFH         LINE#         3979
  C:7CBEH         LINE#         3981
  C:7CD2H         LINE#         3982
  C:7CD8H         LINE#         3984
  C:7CDEH         LINE#         3985
  C:7CE4H         LINE#         3987
  C:7CE4H         LINE#         3988
  C:7D21H         LINE#         3989
  C:7D28H         LINE#         3990
BL51 BANKED LINKER/LOCATER V6.22.2.0                                                  01/14/2022  09:01:27  PAGE 91


  C:7D2CH         LINE#         3992
  C:7D2FH         LINE#         3993
  C:7D2FH         LINE#         3994
  C:7D6AH         LINE#         3995
  C:7D73H         LINE#         3996
  C:7D77H         LINE#         3997
  C:7D79H         LINE#         3998
  C:7D79H         LINE#         4000
  C:7D7FH         LINE#         4001
  C:7D7FH         LINE#         4002
  C:7D98H         LINE#         4003
  C:7DADH         LINE#         4005
  C:7DD5H         LINE#         4006
  C:7DD5H         LINE#         4008
  C:7DEBH         LINE#         4009
  C:7DF4H         LINE#         4011
  C:7DF7H         LINE#         4012
  C:7DF7H         LINE#         4013
  C:7E02H         LINE#         4014
  C:7E07H         LINE#         4016
  C:7E0AH         LINE#         4017
  C:7E0AH         LINE#         4019
  C:7E19H         LINE#         4020
  C:7E19H         LINE#         4021
  C:7E24H         LINE#         4022
  C:7E29H         LINE#         4024
  C:7E2CH         LINE#         4025
  C:7E2CH         LINE#         4026
  C:7E2EH         LINE#         4028
  C:7E2EH         LINE#         4029
  C:7E39H         LINE#         4030
  C:7E3DH         LINE#         4032
  C:7E44H         LINE#         4033
  C:7E44H         LINE#         4035
  C:7E46H         LINE#         4036
  C:7E46H         LINE#         4037
  C:7E46H         LINE#         4038
  -------         ENDPROC       ADC
  -------         PROC          UART
  -------         DO            
  D:0056H         SYMBOL        Rx_temp
  X:0009H         SYMBOL        fg_count
  X:000AH         SYMBOL        Rx_count
  X:000BH         SYMBOL        n
  X:000CH         SYMBOL        da_count
  -------         ENDDO         
  C:92C7H         LINE#         4041
  C:92D2H         LINE#         4051
  C:92D8H         LINE#         4052
  C:92D8H         LINE#         4053
  C:92DAH         LINE#         4054
  C:92DDH         LINE#         4057
  C:92E2H         LINE#         4058
  C:92E2H         LINE#         4060
  C:92E8H         LINE#         4062
  C:92EEH         LINE#         4063
  C:92EEH         LINE#         4064
BL51 BANKED LINKER/LOCATER V6.22.2.0                                                  01/14/2022  09:01:27  PAGE 92


  C:92F1H         LINE#         4065
  C:92F3H         LINE#         4066
  C:92F3H         LINE#         4067
  C:92F5H         LINE#         4069
  C:92FAH         LINE#         4072
  C:9304H         LINE#         4073
  C:9304H         LINE#         4074
  C:930DH         LINE#         4075
  C:9312H         LINE#         4077
  C:9317H         LINE#         4078
  C:9319H         LINE#         4080
  C:9319H         LINE#         4081
  C:931EH         LINE#         4082
  C:931EH         LINE#         4083
  C:9324H         LINE#         4084
  C:9329H         LINE#         4085
  C:932BH         LINE#         4087
  C:932BH         LINE#         4088
  C:9333H         LINE#         4089
  C:9333H         LINE#         4090
  C:933CH         LINE#         4091
  C:9348H         LINE#         4092
  C:934AH         LINE#         4093
  C:934EH         LINE#         4094
  C:934EH         LINE#         4095
  C:9353H         LINE#         4096
  C:9357H         LINE#         4098
  C:9359H         LINE#         4099
  C:935BH         LINE#         4100
  C:9363H         LINE#         4101
  C:9379H         LINE#         4102
  C:937FH         LINE#         4103
  C:937FH         LINE#         4104
  C:9381H         LINE#         4106
  C:9386H         LINE#         4107
  C:938AH         LINE#         4108
  C:938EH         LINE#         4109
  C:938EH         LINE#         4110
  C:938EH         LINE#         4111
  C:938EH         LINE#         4112
  C:938EH         LINE#         4114
  -------         ENDPROC       UART
  -------         ENDMOD        3264GPS____

  -------         MODULE        ?C?SCDIV
  C:A0E0H         PUBLIC        ?C?SCDIV
  -------         ENDMOD        ?C?SCDIV

  -------         MODULE        ?C?IMUL
  C:A102H         PUBLIC        ?C?IMUL
  -------         ENDMOD        ?C?IMUL

  -------         MODULE        ?C?ILDIX
  C:A114H         PUBLIC        ?C?ILDIX
  -------         ENDMOD        ?C?ILDIX

  -------         MODULE        ?C?OFFXADD
BL51 BANKED LINKER/LOCATER V6.22.2.0                                                  01/14/2022  09:01:27  PAGE 93


  C:A12AH         PUBLIC        ?C?OFFXADD
  -------         ENDMOD        ?C?OFFXADD

Program Size: data=141.7 xdata=58 code=42960
LINK/LOCATE RUN COMPLETE.  0 WARNING(S),  0 ERROR(S)
